/*SPDX-Licensen-Identifier: GPL-2.0*/

	.text
	.file	"nftl.c"
	.globl	garbage_collect                 // -- Begin function garbage_collect
	.p2align	2
	.type	garbage_collect,@function
garbage_collect:                        // @garbage_collect
	.cfi_startproc
// %bb.0:
	sub	sp, sp, #48                     // =48
	stp	x29, x30, [sp, #32]             // 16-byte Folded Spill
	add	x29, sp, #32                    // =32
	.cfi_def_cfa w29, 16
	.cfi_offset w30, -8
	.cfi_offset w29, -16
	str	x0, [sp, #16]
	ldr	x8, [sp, #16]
	ldrh	w8, [x8, #30]
	ldr	x9, [sp, #16]
	ldrh	w9, [x9, #680]
	subs	w8, w8, w9
	b.gt	.LBB0_2
// %bb.1:
	ldr	x8, [sp, #16]
	strh	wzr, [x8, #684]
.LBB0_2:
	adrp	x9, gc_src_type
	mov	w8, #3
	str	w8, [x9, :lo12:gc_src_type]
	ldr	x8, [sp, #16]
	ldrh	w8, [x8, #684]
	cbnz	w8, .LBB0_27
// %bb.3:
	ldr	x8, [sp, #16]
	ldrh	w8, [x8, #30]
	ldr	x9, [sp, #16]
	ldrh	w9, [x9, #682]
	subs	w8, w8, w9
	b.ge	.LBB0_25
// %bb.4:
	ldr	x8, [sp, #16]
	ldrh	w8, [x8, #686]
	cbnz	w8, .LBB0_19
// %bb.5:
	ldr	x8, [sp, #16]
	ldr	x8, [x8, #352]
	str	x8, [sp]
	ldr	x8, [sp]
	cbnz	x8, .LBB0_7
// %bb.6:
	adrp	x0, .L.str
	add	x0, x0, :lo12:.L.str
	bl	nand_print
	mov	w8, #1
	stur	w8, [x29, #-4]
	b	.LBB0_28
.LBB0_7:
	ldr	x8, [sp]
	ldrh	w8, [x8, #4]
	ldr	x9, [sp, #16]
	ldr	x9, [x9, #8]
	ldrh	w9, [x9, #20]
	subs	w8, w8, w9, asr #1
	b.lt	.LBB0_9
// %bb.8:
	ldr	x9, [sp, #16]
	mov	w8, #4
	strh	w8, [x9, #688]
	b	.LBB0_16
.LBB0_9:
	ldr	x8, [sp]
	ldrh	w8, [x8, #4]
	ldr	x9, [sp, #16]
	ldr	x9, [x9, #8]
	ldrh	w9, [x9, #20]
	subs	w8, w8, w9, asr #2
	b.lt	.LBB0_11
// %bb.10:
	ldr	x9, [sp, #16]
	mov	w8, #8
	strh	w8, [x9, #688]
	b	.LBB0_15
.LBB0_11:
	ldr	x8, [sp]
	ldrh	w8, [x8, #4]
	ldr	x9, [sp, #16]
	ldr	x9, [x9, #8]
	ldrh	w9, [x9, #20]
	subs	w8, w8, w9, asr #3
	b.lt	.LBB0_13
// %bb.12:
	ldr	x9, [sp, #16]
	mov	w8, #16
	strh	w8, [x9, #688]
	b	.LBB0_14
.LBB0_13:
	ldr	x8, [sp, #16]
	ldrh	w1, [x8, #30]
	ldr	x8, [sp]
	ldrh	w2, [x8, #4]
	adrp	x0, .L.str.1
	add	x0, x0, :lo12:.L.str.1
	bl	nand_print_dbg
	ldr	x9, [sp, #16]
	mov	w8, #65535
	strh	w8, [x9, #688]
.LBB0_14:
.LBB0_15:
.LBB0_16:
	ldr	x8, [sp, #16]
	ldrh	w8, [x8, #30]
	ldr	x9, [sp, #16]
	ldr	x9, [x9, #3448]
	ldrh	w9, [x9, #16]
	subs	w8, w8, w9
	b.gt	.LBB0_18
// %bb.17:
	ldr	x9, [sp, #16]
	mov	w8, #65535
	strh	w8, [x9, #688]
.LBB0_18:
.LBB0_19:
	ldr	x8, [sp, #16]
	ldrh	w8, [x8, #688]
	strh	w8, [sp, #14]
	ldrh	w8, [sp, #14]
	mov	w9, #65535
	subs	w8, w8, w9
	b.eq	.LBB0_23
// %bb.20:
	ldr	x0, [sp, #16]
	ldrh	w2, [sp, #14]
	mov	x1, xzr
	bl	garbage_collect_first
	cbz	w0, .LBB0_22
// %bb.21:
	ldr	x8, [sp, #16]
	ldrh	w1, [x8, #30]
	adrp	x0, .L.str.2
	add	x0, x0, :lo12:.L.str.2
	bl	nand_print
	mov	w8, #1
	stur	w8, [x29, #-4]
	b	.LBB0_28
.LBB0_22:
	b	.LBB0_24
.LBB0_23:
	ldr	x0, [sp, #16]
	mov	w1, #1
	bl	gc_win_block
.LBB0_24:
	b	.LBB0_26
.LBB0_25:
	ldr	x9, [sp, #16]
	mov	w8, #1
	strh	w8, [x9, #684]
	ldr	x8, [sp, #16]
	strh	wzr, [x8, #686]
	ldr	x8, [sp, #16]
	strh	wzr, [x8, #688]
.LBB0_26:
.LBB0_27:
	stur	wzr, [x29, #-4]
.LBB0_28:
	ldur	w0, [x29, #-4]
	ldp	x29, x30, [sp, #32]             // 16-byte Folded Reload
	add	sp, sp, #48                     // =48
	ret
.Lfunc_end0:
	.size	garbage_collect, .Lfunc_end0-garbage_collect
	.cfi_endproc
                                        // -- End function
	.globl	garbage_collect_first           // -- Begin function garbage_collect_first
	.p2align	2
	.type	garbage_collect_first,@function
garbage_collect_first:                  // @garbage_collect_first
	.cfi_startproc
// %bb.0:
	sub	sp, sp, #256                    // =256
	stp	x29, x30, [sp, #240]            // 16-byte Folded Spill
	add	x29, sp, #240                   // =240
	.cfi_def_cfa w29, 16
	.cfi_offset w30, -8
	.cfi_offset w29, -16
	stur	x0, [x29, #-16]
	stur	x1, [x29, #-24]
	sturh	w2, [x29, #-26]
	stur	wzr, [x29, #-48]
	stur	wzr, [x29, #-52]
	stur	wzr, [x29, #-116]
	sub	x0, x29, #68                    // =68
	mov	w1, #90
	mov	w2, #16
	bl	nand_memset
	ldur	x8, [x29, #-24]
	cbnz	x8, .LBB1_2
// %bb.1:
	ldur	x0, [x29, #-16]
	bl	out_phy_block_from_invalid_page_list
	stur	x0, [x29, #-80]
	b	.LBB1_5
.LBB1_2:
	ldur	x0, [x29, #-16]
	ldur	x1, [x29, #-24]
	bl	is_current_blcok
	subs	w8, w0, #1                      // =1
	b.ne	.LBB1_4
// %bb.3:
	stur	wzr, [x29, #-4]
	b	.LBB1_57
.LBB1_4:
	ldur	x0, [x29, #-16]
	ldur	x1, [x29, #-24]
	bl	out_phy_block_from_invalid_page_list_by_block
	stur	x0, [x29, #-80]
.LBB1_5:
	ldur	x8, [x29, #-80]
	cbnz	x8, .LBB1_7
// %bb.6:
	adrp	x0, .L.str.3
	add	x0, x0, :lo12:.L.str.3
	bl	nand_print
	mov	w8, #8
	stur	w8, [x29, #-4]
	b	.LBB1_57
.LBB1_7:
	ldur	x8, [x29, #-16]
	ldr	x9, [x8, #3440]
	ldr	w8, [x9, #120]
	add	w8, w8, #1                      // =1
	str	w8, [x9, #120]
	ldur	x8, [x29, #-80]
	ldrh	w1, [x8]
	ldur	x8, [x29, #-16]
	ldr	x8, [x8, #8]
	ldrh	w8, [x8, #20]
	subs	w2, w8, #1                      // =1
	ldur	x8, [x29, #-16]
	ldr	x8, [x8, #8]
	ldrh	w3, [x8, #28]
	ldur	x8, [x29, #-16]
	ldr	x4, [x8, #512]
	sub	x0, x29, #112                   // =112
	str	x0, [sp, #104]                  // 8-byte Folded Spill
	sub	x5, x29, #68                    // =68
	str	x5, [sp, #112]                  // 8-byte Folded Spill
	bl	set_physic_op_par
	ldr	x1, [sp, #104]                  // 8-byte Folded Reload
	ldur	x8, [x29, #-16]
	ldr	x8, [x8, #3472]
	ldur	x0, [x29, #-16]
	blr	x8
	mov	w8, w0
	ldr	x0, [sp, #112]                  // 8-byte Folded Reload
	stur	w8, [x29, #-44]
	bl	is_phy_mapping_page
	subs	w8, w0, #1                      // =1
	b.eq	.LBB1_9
// %bb.8:
	adrp	x0, .L.str.4
	add	x0, x0, :lo12:.L.str.4
	bl	nand_print_dbg
	ldur	x8, [x29, #-80]
	ldrh	w1, [x8]
	ldur	x8, [x29, #-16]
	ldr	x8, [x8, #8]
	ldrh	w8, [x8, #20]
	mov	w9, #1
	str	w9, [sp, #100]                  // 4-byte Folded Spill
	subs	w2, w8, #1                      // =1
	ldur	w3, [x29, #-116]
	ldur	x8, [x29, #-16]
	ldr	x8, [x8, #8]
	ldrh	w4, [x8, #28]
	adrp	x0, .L.str.5
	add	x0, x0, :lo12:.L.str.5
	bl	nand_print_dbg
	ldurb	w1, [x29, #-67]
	ldurb	w2, [x29, #-66]
	ldurb	w3, [x29, #-65]
	ldurb	w4, [x29, #-64]
	ldurb	w5, [x29, #-63]
	ldurb	w6, [x29, #-62]
	ldurb	w7, [x29, #-61]
	ldurb	w16, [x29, #-60]
	ldurb	w15, [x29, #-59]
	ldurb	w14, [x29, #-58]
	ldurb	w13, [x29, #-57]
	ldurb	w12, [x29, #-56]
	ldurb	w11, [x29, #-55]
	ldurb	w10, [x29, #-54]
	ldurb	w8, [x29, #-53]
	adrp	x0, .L.str.6
	add	x0, x0, :lo12:.L.str.6
	mov	x9, sp
	str	x9, [sp, #88]                   // 8-byte Folded Spill
	str	w16, [x9]
	str	w15, [x9, #8]
	str	w14, [x9, #16]
	str	w13, [x9, #24]
	str	w12, [x9, #32]
	str	w11, [x9, #40]
	str	w10, [x9, #48]
	str	w8, [x9, #56]
	bl	nand_print_dbg
	ldur	x8, [x29, #-16]
	ldrb	w1, [x8, #24]
	ldur	x8, [x29, #-80]
	ldrh	w2, [x8]
	adrp	x0, .L.str.7
	add	x0, x0, :lo12:.L.str.7
	bl	nand_print_dbg
	ldur	x0, [x29, #-16]
	ldur	x1, [x29, #-80]
	ldur	x8, [x29, #-16]
	ldr	x2, [x8, #480]
	bl	recover_block_phy_page_mapping
	ldr	w8, [sp, #100]                  // 4-byte Folded Reload
	stur	w8, [x29, #-52]
	b	.LBB1_14
.LBB1_9:
	ldur	w8, [x29, #-44]
	cbz	w8, .LBB1_12
// %bb.10:
	ldur	w8, [x29, #-44]
	subs	w8, w8, #10                     // =10
	b.eq	.LBB1_12
// %bb.11:
	ldur	x8, [x29, #-80]
	ldrh	w1, [x8]
	adrp	x0, .L.str.8
	add	x0, x0, :lo12:.L.str.8
	bl	nand_print_dbg
	ldur	x0, [x29, #-16]
	ldur	x1, [x29, #-80]
	ldur	x8, [x29, #-16]
	ldr	x2, [x8, #480]
	bl	recover_block_phy_page_mapping
	mov	w8, #1
	stur	w8, [x29, #-52]
	b	.LBB1_13
.LBB1_12:
	ldur	x8, [x29, #-16]
	ldr	x0, [x8, #480]
	ldur	x8, [x29, #-16]
	ldr	x1, [x8, #512]
	ldur	x8, [x29, #-16]
	ldr	w2, [x8, #488]
	bl	nand_memcpy
.LBB1_13:
.LBB1_14:
	ldur	x0, [x29, #-16]
	ldur	x8, [x29, #-16]
	add	x1, x8, #464                    // =464
	ldur	x2, [x29, #-80]
	ldur	x8, [x29, #-16]
	ldr	x8, [x8, #8]
	ldrh	w3, [x8, #20]
	bl	check_invalid_page_right
	stur	w0, [x29, #-44]
	ldur	w8, [x29, #-44]
	cbz	w8, .LBB1_16
// %bb.15:
	adrp	x0, .L.str.9
	add	x0, x0, :lo12:.L.str.9
	bl	nand_print
	mov	w8, #1
	stur	w8, [x29, #-52]
.LBB1_16:
	ldur	w8, [x29, #-52]
	subs	w8, w8, #1                      // =1
	b.ne	.LBB1_18
// %bb.17:
	mov	w8, #65535
	sturh	w8, [x29, #-26]
.LBB1_18:
	stur	wzr, [x29, #-32]
.LBB1_19:                               // =>This Loop Header: Depth=1
                                        //     Child Loop BB1_29 Depth 2
	ldur	w8, [x29, #-32]
	ldur	x9, [x29, #-16]
	ldr	x9, [x9, #8]
	ldrh	w9, [x9, #20]
	subs	w9, w9, #1                      // =1
	subs	w8, w8, w9
	b.hs	.LBB1_50
// %bb.20:                              //   in Loop: Header=BB1_19 Depth=1
	ldur	x8, [x29, #-16]
	ldr	x8, [x8, #480]
	ldur	w9, [x29, #-32]
                                        // kill: def $x9 killed $w9
	ldr	w8, [x8, x9, lsl #2]
	stur	w8, [x29, #-40]
	ldur	w8, [x29, #-40]
	adds	w8, w8, #1                      // =1
	b.ne	.LBB1_22
// %bb.21:                              //   in Loop: Header=BB1_19 Depth=1
	b	.LBB1_49
.LBB1_22:                               //   in Loop: Header=BB1_19 Depth=1
	ldur	x0, [x29, #-16]
	ldur	w1, [x29, #-40]
	bl	get_logic_page_map
	stur	x0, [x29, #-88]
	ldur	x8, [x29, #-88]
	cbnz	x8, .LBB1_24
// %bb.23:                              //   in Loop: Header=BB1_19 Depth=1
	b	.LBB1_49
.LBB1_24:                               //   in Loop: Header=BB1_19 Depth=1
	ldur	x8, [x29, #-88]
	ldrh	w8, [x8, #2]
	ldur	x9, [x29, #-80]
	ldrh	w9, [x9]
	subs	w8, w8, w9
	b.eq	.LBB1_26
// %bb.25:                              //   in Loop: Header=BB1_19 Depth=1
	b	.LBB1_49
.LBB1_26:                               //   in Loop: Header=BB1_19 Depth=1
	ldur	x8, [x29, #-88]
	ldrh	w8, [x8]
	and	w8, w8, #0xfff
	and	w8, w8, #0xffff
	ldur	w9, [x29, #-32]
	subs	w8, w8, w9
	b.eq	.LBB1_28
// %bb.27:                              //   in Loop: Header=BB1_19 Depth=1
	b	.LBB1_49
.LBB1_28:                               //   in Loop: Header=BB1_19 Depth=1
	ldur	x8, [x29, #-16]
	ldr	x9, [x8, #3440]
	ldr	w8, [x9, #124]
	add	w8, w8, #1                      // =1
	str	w8, [x9, #124]
	ldur	x8, [x29, #-80]
	ldrh	w1, [x8]
	ldur	w2, [x29, #-32]
	ldur	x8, [x29, #-16]
	ldr	x8, [x8, #8]
	ldrh	w3, [x8, #28]
	ldur	x8, [x29, #-16]
	ldr	x4, [x8, #520]
	sub	x0, x29, #112                   // =112
	sub	x5, x29, #68                    // =68
	bl	set_physic_op_par
	stur	wzr, [x29, #-36]
.LBB1_29:                               //   Parent Loop BB1_19 Depth=1
                                        // =>  This Inner Loop Header: Depth=2
	ldur	w8, [x29, #-36]
	subs	w8, w8, #2                      // =2
	b.hs	.LBB1_37
// %bb.30:                              //   in Loop: Header=BB1_29 Depth=2
	ldur	x8, [x29, #-16]
	ldr	x8, [x8, #3472]
	ldur	x0, [x29, #-16]
	sub	x1, x29, #112                   // =112
	blr	x8
	stur	w0, [x29, #-44]
	ldur	w8, [x29, #-44]
	subs	w8, w8, #0                      // =0
	b.hs	.LBB1_32
// %bb.31:                              //   in Loop: Header=BB1_29 Depth=2
	ldur	x8, [x29, #-80]
	ldrh	w2, [x8]
	ldur	w3, [x29, #-32]
	adrp	x0, .L.str.10
	add	x0, x0, :lo12:.L.str.10
	adrp	x1, .L__func__.garbage_collect_first
	add	x1, x1, :lo12:.L__func__.garbage_collect_first
	bl	nand_print
	b	.LBB1_33
.LBB1_32:                               //   in Loop: Header=BB1_19 Depth=1
	b	.LBB1_37
.LBB1_33:                               //   in Loop: Header=BB1_29 Depth=2
	ldur	w8, [x29, #-36]
	subs	w8, w8, #1                      // =1
	b.ne	.LBB1_35
// %bb.34:                              //   in Loop: Header=BB1_29 Depth=2
	ldur	x8, [x29, #-80]
	ldrh	w2, [x8]
	ldur	w3, [x29, #-32]
	ldur	w4, [x29, #-36]
	adrp	x0, .L.str.11
	add	x0, x0, :lo12:.L.str.11
	adrp	x1, .L__func__.garbage_collect_first
	add	x1, x1, :lo12:.L__func__.garbage_collect_first
	bl	nand_print
.LBB1_35:                               //   in Loop: Header=BB1_29 Depth=2
// %bb.36:                              //   in Loop: Header=BB1_29 Depth=2
	ldur	w8, [x29, #-36]
	add	w8, w8, #1                      // =1
	stur	w8, [x29, #-36]
	b	.LBB1_29
.LBB1_37:                               //   in Loop: Header=BB1_19 Depth=1
	sub	x0, x29, #68                    // =68
	bl	get_logic_page_from_oob
	stur	w0, [x29, #-48]
	ldur	w8, [x29, #-44]
	cbz	w8, .LBB1_39
// %bb.38:                              //   in Loop: Header=BB1_19 Depth=1
	ldur	w8, [x29, #-44]
	subs	w8, w8, #10                     // =10
	b.ne	.LBB1_45
.LBB1_39:                               //   in Loop: Header=BB1_19 Depth=1
	ldur	w8, [x29, #-48]
	ldur	w9, [x29, #-40]
	subs	w8, w8, w9
	b.eq	.LBB1_41
// %bb.40:                              //   in Loop: Header=BB1_19 Depth=1
	ldur	x8, [x29, #-80]
	ldrh	w1, [x8]
	ldur	w2, [x29, #-32]
	ldur	w3, [x29, #-48]
	ldur	w4, [x29, #-40]
	adrp	x0, .L.str.12
	add	x0, x0, :lo12:.L.str.12
	bl	nand_print_dbg
	ldurb	w1, [x29, #-68]
	ldurb	w2, [x29, #-67]
	ldurb	w3, [x29, #-66]
	ldurb	w4, [x29, #-65]
	ldurb	w5, [x29, #-64]
	ldurb	w6, [x29, #-63]
	ldurb	w7, [x29, #-62]
	ldurb	w17, [x29, #-61]
	ldurb	w16, [x29, #-60]
	ldurb	w15, [x29, #-59]
	ldurb	w14, [x29, #-58]
	ldurb	w13, [x29, #-57]
	ldurb	w12, [x29, #-56]
	ldurb	w11, [x29, #-55]
	ldurb	w10, [x29, #-54]
	ldurb	w8, [x29, #-53]
	adrp	x0, .L.str.13
	add	x0, x0, :lo12:.L.str.13
	mov	x9, sp
	str	x9, [sp, #80]                   // 8-byte Folded Spill
	str	w17, [x9]
	str	w16, [x9, #8]
	str	w15, [x9, #16]
	str	w14, [x9, #24]
	str	w13, [x9, #32]
	str	w12, [x9, #40]
	str	w11, [x9, #48]
	str	w10, [x9, #56]
	str	w8, [x9, #64]
	bl	nand_print
	ldur	x9, [x29, #-88]
	mov	w8, #65535
	strh	w8, [x9, #2]
	ldur	x10, [x29, #-88]
	ldrh	w9, [x10]
	and	w9, w9, #0xfffff000
	orr	w9, w9, #0xfff
	strh	w9, [x10]
	mov	w9, #1
	stur	w9, [x29, #-52]
	sturh	w8, [x29, #-26]
	ldur	x9, [x29, #-80]
	ldrh	w8, [x9, #4]
	add	w8, w8, #1                      // =1
	strh	w8, [x9, #4]
	b	.LBB1_44
.LBB1_41:                               //   in Loop: Header=BB1_19 Depth=1
	ldur	x0, [x29, #-16]
	ldur	w1, [x29, #-40]
	ldur	x8, [x29, #-16]
	ldr	x2, [x8, #520]
	bl	nand_write_logic_page_no_gc
	stur	w0, [x29, #-44]
	ldur	w8, [x29, #-44]
	cbz	w8, .LBB1_43
// %bb.42:
	adrp	x0, .L.str.14
	add	x0, x0, :lo12:.L.str.14
	bl	nand_print
	mov	w8, #1
	stur	w8, [x29, #-4]
	b	.LBB1_57
.LBB1_43:                               //   in Loop: Header=BB1_19 Depth=1
.LBB1_44:                               //   in Loop: Header=BB1_19 Depth=1
	b	.LBB1_46
.LBB1_45:                               //   in Loop: Header=BB1_19 Depth=1
	ldur	x9, [x29, #-80]
	ldrh	w8, [x9, #4]
	add	w8, w8, #1                      // =1
	strh	w8, [x9, #4]
	mov	w8, #1
	stur	w8, [x29, #-52]
	mov	w8, #65535
	sturh	w8, [x29, #-26]
.LBB1_46:                               //   in Loop: Header=BB1_19 Depth=1
	ldurh	w9, [x29, #-26]
	mov	w8, #-1
	add	w8, w8, w9, uxth
	sturh	w8, [x29, #-26]
	ldurh	w8, [x29, #-26]
	cbnz	w8, .LBB1_48
// %bb.47:
	b	.LBB1_50
.LBB1_48:                               //   in Loop: Header=BB1_19 Depth=1
.LBB1_49:                               //   in Loop: Header=BB1_19 Depth=1
	ldur	w8, [x29, #-32]
	add	w8, w8, #1                      // =1
	stur	w8, [x29, #-32]
	b	.LBB1_19
.LBB1_50:
	ldur	w8, [x29, #-32]
	ldur	x9, [x29, #-16]
	ldr	x9, [x9, #8]
	ldrh	w9, [x9, #20]
	subs	w9, w9, #1                      // =1
	subs	w8, w8, w9
	b.ne	.LBB1_52
// %bb.51:
	ldur	x8, [x29, #-16]
	strh	wzr, [x8, #686]
.LBB1_52:
	ldur	w8, [x29, #-52]
	subs	w8, w8, #1                      // =1
	b.ne	.LBB1_55
// %bb.53:
	ldur	w8, [x29, #-32]
	ldur	x9, [x29, #-16]
	ldr	x9, [x9, #8]
	ldrh	w9, [x9, #20]
	subs	w9, w9, #1                      // =1
	subs	w8, w8, w9
	b.ne	.LBB1_55
// %bb.54:
	adrp	x0, .L.str.15
	add	x0, x0, :lo12:.L.str.15
	bl	nand_print
	ldur	x0, [x29, #-16]
	ldur	x1, [x29, #-80]
	ldur	x8, [x29, #-80]
	ldrh	w8, [x8, #6]
	add	w2, w8, #1                      // =1
	bl	erase_block
	b	.LBB1_56
.LBB1_55:
	ldur	x0, [x29, #-16]
	ldur	x1, [x29, #-80]
	bl	put_phy_block_to_invalid_page_list
	ldur	x0, [x29, #-16]
	bl	adjust_invaild_list
.LBB1_56:
	stur	wzr, [x29, #-4]
.LBB1_57:
	ldur	w0, [x29, #-4]
	ldp	x29, x30, [sp, #240]            // 16-byte Folded Reload
	add	sp, sp, #256                    // =256
	ret
.Lfunc_end1:
	.size	garbage_collect_first, .Lfunc_end1-garbage_collect_first
	.cfi_endproc
                                        // -- End function
	.globl	gc_win_block                    // -- Begin function gc_win_block
	.p2align	2
	.type	gc_win_block,@function
gc_win_block:                           // @gc_win_block
	.cfi_startproc
// %bb.0:
	sub	sp, sp, #48                     // =48
	stp	x29, x30, [sp, #32]             // 16-byte Folded Spill
	add	x29, sp, #32                    // =32
	.cfi_def_cfa w29, 16
	.cfi_offset w30, -8
	.cfi_offset w29, -16
	str	x0, [sp, #16]
	strh	w1, [sp, #14]
	str	wzr, [sp, #4]
	ldrh	w8, [sp, #14]
	ldr	x9, [sp, #16]
	ldr	x9, [x9, #8]
	ldrh	w9, [x9, #20]
	mul	w8, w8, w9
	str	w8, [sp]
.LBB2_1:                                // =>This Inner Loop Header: Depth=1
	ldr	w8, [sp, #4]
	ldr	w9, [sp]
	subs	w8, w8, w9
	b.ge	.LBB2_9
// %bb.2:                               //   in Loop: Header=BB2_1 Depth=1
	ldr	x8, [sp, #16]
	ldr	x8, [x8, #352]
	cbnz	x8, .LBB2_4
// %bb.3:
	stur	wzr, [x29, #-4]
	b	.LBB2_10
.LBB2_4:                                //   in Loop: Header=BB2_1 Depth=1
	ldr	x8, [sp, #16]
	ldr	x8, [x8, #352]
	ldrh	w9, [x8, #4]
	ldr	w8, [sp, #4]
	add	w8, w8, w9
	str	w8, [sp, #4]
	ldr	w8, [sp, #4]
	subs	w8, w8, #1                      // =1
	str	w8, [sp, #4]
	ldr	x0, [sp, #16]
	mov	w1, #1
	bl	gc_one
	str	w0, [sp, #8]
	ldr	w8, [sp, #8]
	cbz	w8, .LBB2_8
// %bb.5:
	ldr	w8, [sp, #8]
	subs	w8, w8, #1                      // =1
	b.ne	.LBB2_7
// %bb.6:
	adrp	x0, .L.str.30
	add	x0, x0, :lo12:.L.str.30
	bl	nand_print_dbg
.LBB2_7:
	ldr	w8, [sp, #8]
	stur	w8, [x29, #-4]
	b	.LBB2_10
.LBB2_8:                                //   in Loop: Header=BB2_1 Depth=1
	b	.LBB2_1
.LBB2_9:
	stur	wzr, [x29, #-4]
.LBB2_10:
	ldur	w0, [x29, #-4]
	ldp	x29, x30, [sp, #32]             // 16-byte Folded Reload
	add	sp, sp, #48                     // =48
	ret
.Lfunc_end2:
	.size	gc_win_block, .Lfunc_end2-gc_win_block
	.cfi_endproc
                                        // -- End function
	.globl	out_phy_block_from_invalid_page_list // -- Begin function out_phy_block_from_invalid_page_list
	.p2align	2
	.type	out_phy_block_from_invalid_page_list,@function
out_phy_block_from_invalid_page_list:   // @out_phy_block_from_invalid_page_list
	.cfi_startproc
// %bb.0:
	sub	sp, sp, #48                     // =48
	stp	x29, x30, [sp, #32]             // 16-byte Folded Spill
	add	x29, sp, #32                    // =32
	.cfi_def_cfa w29, 16
	.cfi_offset w30, -8
	.cfi_offset w29, -16
	str	x0, [sp, #16]
	ldr	x0, [sp, #16]
	bl	del_block_invalid_list
	str	x0, [sp, #8]
	ldr	x8, [sp, #8]
	cbz	x8, .LBB3_2
// %bb.1:
	ldr	x8, [sp, #8]
	str	xzr, [x8, #16]
	ldr	x8, [sp, #8]
	str	xzr, [x8, #24]
	ldr	x8, [sp, #8]
	stur	x8, [x29, #-8]
	b	.LBB3_3
.LBB3_2:
	ldr	x8, [sp, #8]
	stur	x8, [x29, #-8]
.LBB3_3:
	ldur	x0, [x29, #-8]
	ldp	x29, x30, [sp, #32]             // 16-byte Folded Reload
	add	sp, sp, #48                     // =48
	ret
.Lfunc_end3:
	.size	out_phy_block_from_invalid_page_list, .Lfunc_end3-out_phy_block_from_invalid_page_list
	.cfi_endproc
                                        // -- End function
	.globl	is_current_blcok                // -- Begin function is_current_blcok
	.p2align	2
	.type	is_current_blcok,@function
is_current_blcok:                       // @is_current_blcok
	.cfi_startproc
// %bb.0:
	sub	sp, sp, #32                     // =32
	.cfi_def_cfa_offset 32
	str	x0, [sp, #24]
	str	x1, [sp, #16]
	str	wzr, [sp, #12]
	ldr	x8, [sp, #24]
	ldrb	w8, [x8, #25]
	tbz	w8, #0, .LBB4_5
// %bb.1:
	ldr	x8, [sp, #16]
	ldr	x9, [sp, #24]
	ldr	x9, [x9, #592]
	subs	x8, x8, x9
	b.eq	.LBB4_3
// %bb.2:
	ldr	x8, [sp, #16]
	ldr	x9, [sp, #24]
	ldr	x9, [x9, #528]
	subs	x8, x8, x9
	b.ne	.LBB4_4
.LBB4_3:
	mov	w8, #1
	str	w8, [sp, #12]
.LBB4_4:
	b	.LBB4_8
.LBB4_5:
	ldr	x8, [sp, #16]
	ldr	x9, [sp, #24]
	ldr	x9, [x9, #528]
	subs	x8, x8, x9
	b.ne	.LBB4_7
// %bb.6:
	mov	w8, #1
	str	w8, [sp, #12]
.LBB4_7:
.LBB4_8:
	ldr	w0, [sp, #12]
	add	sp, sp, #32                     // =32
	ret
.Lfunc_end4:
	.size	is_current_blcok, .Lfunc_end4-is_current_blcok
	.cfi_endproc
                                        // -- End function
	.globl	out_phy_block_from_invalid_page_list_by_block // -- Begin function out_phy_block_from_invalid_page_list_by_block
	.p2align	2
	.type	out_phy_block_from_invalid_page_list_by_block,@function
out_phy_block_from_invalid_page_list_by_block: // @out_phy_block_from_invalid_page_list_by_block
	.cfi_startproc
// %bb.0:
	sub	sp, sp, #48                     // =48
	stp	x29, x30, [sp, #32]             // 16-byte Folded Spill
	add	x29, sp, #32                    // =32
	.cfi_def_cfa w29, 16
	.cfi_offset w30, -8
	.cfi_offset w29, -16
	str	x0, [sp, #16]
	str	x1, [sp, #8]
	ldr	x0, [sp, #16]
	ldr	x1, [sp, #8]
	bl	del_block_invalid_list_by_block
	str	x0, [sp]
	ldr	x8, [sp]
	cbz	x8, .LBB5_2
// %bb.1:
	ldr	x8, [sp]
	str	xzr, [x8, #16]
	ldr	x8, [sp]
	str	xzr, [x8, #24]
	ldr	x8, [sp]
	stur	x8, [x29, #-8]
	b	.LBB5_3
.LBB5_2:
	ldr	x8, [sp]
	stur	x8, [x29, #-8]
.LBB5_3:
	ldur	x0, [x29, #-8]
	ldp	x29, x30, [sp, #32]             // 16-byte Folded Reload
	add	sp, sp, #48                     // =48
	ret
.Lfunc_end5:
	.size	out_phy_block_from_invalid_page_list_by_block, .Lfunc_end5-out_phy_block_from_invalid_page_list_by_block
	.cfi_endproc
                                        // -- End function
	.globl	set_physic_op_par               // -- Begin function set_physic_op_par
	.p2align	2
	.type	set_physic_op_par,@function
set_physic_op_par:                      // @set_physic_op_par
	.cfi_startproc
// %bb.0:
	sub	sp, sp, #32                     // =32
	.cfi_def_cfa_offset 32
	str	x0, [sp, #24]
	strh	w1, [sp, #22]
	strh	w2, [sp, #20]
	strh	w3, [sp, #18]
	str	x4, [sp, #8]
	str	x5, [sp]
	ldrh	w8, [sp, #20]
	ldr	x9, [sp, #24]
	strh	w8, [x9]
	ldrh	w8, [sp, #22]
	ldr	x9, [sp, #24]
	strh	w8, [x9, #2]
	ldrh	w8, [sp, #18]
	ldr	x9, [sp, #24]
	strh	w8, [x9, #4]
	ldr	x8, [sp, #8]
	ldr	x9, [sp, #24]
	str	x8, [x9, #8]
	ldr	x8, [sp]
	ldr	x9, [sp, #24]
	str	x8, [x9, #16]
	add	sp, sp, #32                     // =32
	ret
.Lfunc_end6:
	.size	set_physic_op_par, .Lfunc_end6-set_physic_op_par
	.cfi_endproc
                                        // -- End function
	.globl	is_phy_mapping_page             // -- Begin function is_phy_mapping_page
	.p2align	2
	.type	is_phy_mapping_page,@function
is_phy_mapping_page:                    // @is_phy_mapping_page
	.cfi_startproc
// %bb.0:
	sub	sp, sp, #48                     // =48
	stp	x29, x30, [sp, #32]             // 16-byte Folded Spill
	add	x29, sp, #32                    // =32
	.cfi_def_cfa w29, 16
	.cfi_offset w30, -8
	.cfi_offset w29, -16
	str	x0, [sp, #16]
	ldr	x0, [sp, #16]
	bl	get_special_data_from_oob
	str	w0, [sp, #12]
	ldr	w8, [sp, #12]
	mov	w9, #-1431633921
	subs	w8, w8, w9
	b.ne	.LBB7_2
// %bb.1:
	mov	w8, #1
	stur	w8, [x29, #-4]
	b	.LBB7_3
.LBB7_2:
	stur	wzr, [x29, #-4]
.LBB7_3:
	ldur	w0, [x29, #-4]
	ldp	x29, x30, [sp, #32]             // 16-byte Folded Reload
	add	sp, sp, #48                     // =48
	ret
.Lfunc_end7:
	.size	is_phy_mapping_page, .Lfunc_end7-is_phy_mapping_page
	.cfi_endproc
                                        // -- End function
	.globl	recover_block_phy_page_mapping  // -- Begin function recover_block_phy_page_mapping
	.p2align	2
	.type	recover_block_phy_page_mapping,@function
recover_block_phy_page_mapping:         // @recover_block_phy_page_mapping
	.cfi_startproc
// %bb.0:
	sub	sp, sp, #96                     // =96
	stp	x29, x30, [sp, #80]             // 16-byte Folded Spill
	add	x29, sp, #80                    // =80
	.cfi_def_cfa w29, 16
	.cfi_offset w30, -8
	.cfi_offset w29, -16
	stur	x0, [x29, #-8]
	stur	x1, [x29, #-16]
	stur	x2, [x29, #-24]
	stur	wzr, [x29, #-36]
	ldur	x0, [x29, #-24]
	ldur	x8, [x29, #-8]
	ldr	w2, [x8, #560]
	mov	w1, #-1
	bl	nand_memset
	stur	wzr, [x29, #-28]
.LBB8_1:                                // =>This Loop Header: Depth=1
                                        //     Child Loop BB8_6 Depth 2
	ldur	w8, [x29, #-28]
	ldur	x9, [x29, #-8]
	ldr	x9, [x9, #8]
	ldrh	w9, [x9, #20]
	subs	w9, w9, #1                      // =1
	subs	w8, w8, w9
	b.ge	.LBB8_30
// %bb.2:                               //   in Loop: Header=BB8_1 Depth=1
	ldur	x8, [x29, #-8]
	ldr	x8, [x8, #3448]
	ldrh	w8, [x8, #28]
	cbz	w8, .LBB8_4
// %bb.3:                               //   in Loop: Header=BB8_1 Depth=1
	ldur	x8, [x29, #-16]
	ldrh	w1, [x8]
	ldur	w2, [x29, #-28]
	ldur	x8, [x29, #-8]
	ldr	x8, [x8, #8]
	ldrh	w3, [x8, #28]
	ldur	x8, [x29, #-8]
	ldr	x4, [x8, #512]
	mov	x0, sp
	add	x5, sp, #28                     // =28
	bl	set_physic_op_par
	b	.LBB8_5
.LBB8_4:                                //   in Loop: Header=BB8_1 Depth=1
	ldur	x8, [x29, #-16]
	ldrh	w1, [x8]
	ldur	w2, [x29, #-28]
	mov	x0, sp
	mov	w3, wzr
	mov	x4, xzr
	add	x5, sp, #28                     // =28
	bl	set_physic_op_par
.LBB8_5:                                //   in Loop: Header=BB8_1 Depth=1
	stur	wzr, [x29, #-36]
.LBB8_6:                                //   Parent Loop BB8_1 Depth=1
                                        // =>  This Inner Loop Header: Depth=2
	ldur	w8, [x29, #-36]
	subs	w8, w8, #2                      // =2
	b.ge	.LBB8_14
// %bb.7:                               //   in Loop: Header=BB8_6 Depth=2
	ldur	x8, [x29, #-8]
	ldr	x8, [x8, #3472]
	ldur	x0, [x29, #-8]
	mov	x1, sp
	blr	x8
	stur	w0, [x29, #-32]
	ldur	w8, [x29, #-32]
	subs	w8, w8, #0                      // =0
	b.ge	.LBB8_9
// %bb.8:                               //   in Loop: Header=BB8_6 Depth=2
	ldur	w1, [x29, #-32]
	ldur	x8, [x29, #-16]
	ldrh	w2, [x8]
	ldur	w3, [x29, #-28]
	adrp	x0, .L.str.162
	add	x0, x0, :lo12:.L.str.162
	bl	nand_print
	b	.LBB8_10
.LBB8_9:                                //   in Loop: Header=BB8_1 Depth=1
	b	.LBB8_14
.LBB8_10:                               //   in Loop: Header=BB8_6 Depth=2
	ldur	w8, [x29, #-36]
	subs	w8, w8, #1                      // =1
	b.ne	.LBB8_12
// %bb.11:                              //   in Loop: Header=BB8_6 Depth=2
	ldur	w1, [x29, #-32]
	ldur	x8, [x29, #-16]
	ldrh	w2, [x8]
	ldur	w3, [x29, #-28]
	ldur	w4, [x29, #-36]
	adrp	x0, .L.str.163
	add	x0, x0, :lo12:.L.str.163
	bl	nand_print
.LBB8_12:                               //   in Loop: Header=BB8_6 Depth=2
// %bb.13:                              //   in Loop: Header=BB8_6 Depth=2
	ldur	w8, [x29, #-36]
	add	w8, w8, #1                      // =1
	stur	w8, [x29, #-36]
	b	.LBB8_6
.LBB8_14:                               //   in Loop: Header=BB8_1 Depth=1
	add	x0, sp, #28                     // =28
	bl	is_ftl_logic_page_data
	subs	w8, w0, #1                      // =1
	b.ne	.LBB8_24
// %bb.15:                              //   in Loop: Header=BB8_1 Depth=1
	ldur	w8, [x29, #-32]
	cbz	w8, .LBB8_17
// %bb.16:                              //   in Loop: Header=BB8_1 Depth=1
	ldur	w8, [x29, #-32]
	subs	w8, w8, #10                     // =10
	b.ne	.LBB8_23
.LBB8_17:                               //   in Loop: Header=BB8_1 Depth=1
	ldur	x0, [x29, #-8]
	ldur	x8, [x29, #-8]
	ldr	x1, [x8, #512]
	add	x2, sp, #28                     // =28
	bl	nand_power_off_ecc_error
	cbz	w0, .LBB8_19
// %bb.18:                              //   in Loop: Header=BB8_1 Depth=1
	adrp	x0, .L.str.164
	add	x0, x0, :lo12:.L.str.164
	bl	nand_print
	b	.LBB8_22
.LBB8_19:                               //   in Loop: Header=BB8_1 Depth=1
	add	x0, sp, #28                     // =28
	bl	get_logic_page_from_oob
	ldur	x8, [x29, #-24]
	ldursw	x9, [x29, #-28]
	str	w0, [x8, x9, lsl #2]
	ldur	x8, [x29, #-24]
	ldursw	x9, [x29, #-28]
	ldr	w8, [x8, x9, lsl #2]
	ldur	x9, [x29, #-8]
	ldr	w9, [x9, #36]
	subs	w8, w8, w9
	b.lo	.LBB8_21
// %bb.20:                              //   in Loop: Header=BB8_1 Depth=1
	ldur	x8, [x29, #-16]
	ldrh	w1, [x8]
	ldur	w2, [x29, #-28]
	ldur	x8, [x29, #-24]
	ldursw	x9, [x29, #-28]
	ldr	w3, [x8, x9, lsl #2]
	adrp	x0, .L.str.157
	add	x0, x0, :lo12:.L.str.157
	bl	nand_print
	ldur	x9, [x29, #-24]
	ldursw	x10, [x29, #-28]
	mov	w8, #-1
	str	w8, [x9, x10, lsl #2]
.LBB8_21:                               //   in Loop: Header=BB8_1 Depth=1
.LBB8_22:                               //   in Loop: Header=BB8_1 Depth=1
.LBB8_23:                               //   in Loop: Header=BB8_1 Depth=1
	b	.LBB8_28
.LBB8_24:                               //   in Loop: Header=BB8_1 Depth=1
	add	x0, sp, #28                     // =28
	bl	is_nouse_page
	subs	w8, w0, #1                      // =1
	b.ne	.LBB8_26
// %bb.25:                              //   in Loop: Header=BB8_1 Depth=1
	b	.LBB8_27
.LBB8_26:                               //   in Loop: Header=BB8_1 Depth=1
	ldur	x8, [x29, #-16]
	ldrh	w1, [x8]
	ldur	w2, [x29, #-28]
	adrp	x0, .L.str.165
	add	x0, x0, :lo12:.L.str.165
	bl	nand_print
.LBB8_27:                               //   in Loop: Header=BB8_1 Depth=1
.LBB8_28:                               //   in Loop: Header=BB8_1 Depth=1
// %bb.29:                              //   in Loop: Header=BB8_1 Depth=1
	ldur	w8, [x29, #-28]
	add	w8, w8, #1                      // =1
	stur	w8, [x29, #-28]
	b	.LBB8_1
.LBB8_30:
	mov	w0, wzr
	ldp	x29, x30, [sp, #80]             // 16-byte Folded Reload
	add	sp, sp, #96                     // =96
	ret
.Lfunc_end8:
	.size	recover_block_phy_page_mapping, .Lfunc_end8-recover_block_phy_page_mapping
	.cfi_endproc
                                        // -- End function
	.globl	check_invalid_page_right        // -- Begin function check_invalid_page_right
	.p2align	2
	.type	check_invalid_page_right,@function
check_invalid_page_right:               // @check_invalid_page_right
	.cfi_startproc
// %bb.0:
	sub	sp, sp, #80                     // =80
	stp	x29, x30, [sp, #64]             // 16-byte Folded Spill
	add	x29, sp, #64                    // =64
	.cfi_def_cfa w29, 16
	.cfi_offset w30, -8
	.cfi_offset w29, -16
	stur	x0, [x29, #-16]
	stur	x1, [x29, #-24]
	str	x2, [sp, #32]
	strh	w3, [sp, #30]
	str	wzr, [sp, #16]
	str	wzr, [sp, #24]
.LBB9_1:                                // =>This Inner Loop Header: Depth=1
	ldr	w8, [sp, #24]
	ldrh	w9, [sp, #30]
	subs	w8, w8, w9
	b.hs	.LBB9_12
// %bb.2:                               //   in Loop: Header=BB9_1 Depth=1
	ldur	x8, [x29, #-24]
	ldr	x8, [x8, #16]
	ldr	w9, [sp, #24]
                                        // kill: def $x9 killed $w9
	ldr	w8, [x8, x9, lsl #2]
	str	w8, [sp, #20]
	ldr	w8, [sp, #20]
	adds	w8, w8, #1                      // =1
	b.eq	.LBB9_9
// %bb.3:                               //   in Loop: Header=BB9_1 Depth=1
	ldur	x0, [x29, #-16]
	ldr	w1, [sp, #20]
	bl	get_logic_page_map
	str	x0, [sp, #8]
	ldr	x8, [sp, #8]
	cbnz	x8, .LBB9_5
// %bb.4:                               //   in Loop: Header=BB9_1 Depth=1
	adrp	x0, .L.str.62
	add	x0, x0, :lo12:.L.str.62
	bl	nand_print_dbg
	ldr	w8, [sp, #16]
	add	w8, w8, #1                      // =1
	str	w8, [sp, #16]
	b	.LBB9_11
.LBB9_5:                                //   in Loop: Header=BB9_1 Depth=1
	ldr	x8, [sp, #8]
	ldrh	w8, [x8, #2]
	ldr	x9, [sp, #32]
	ldrh	w9, [x9]
	subs	w8, w8, w9
	b.ne	.LBB9_7
// %bb.6:                               //   in Loop: Header=BB9_1 Depth=1
	ldr	x8, [sp, #8]
	ldrh	w8, [x8]
	and	w8, w8, #0xfff
	and	w8, w8, #0xffff
	ldr	w9, [sp, #24]
	subs	w8, w8, w9
	b.eq	.LBB9_8
.LBB9_7:                                //   in Loop: Header=BB9_1 Depth=1
	ldr	w8, [sp, #16]
	add	w8, w8, #1                      // =1
	str	w8, [sp, #16]
.LBB9_8:                                //   in Loop: Header=BB9_1 Depth=1
	b	.LBB9_10
.LBB9_9:                                //   in Loop: Header=BB9_1 Depth=1
	ldr	w8, [sp, #16]
	add	w8, w8, #1                      // =1
	str	w8, [sp, #16]
.LBB9_10:                               //   in Loop: Header=BB9_1 Depth=1
.LBB9_11:                               //   in Loop: Header=BB9_1 Depth=1
	ldr	w8, [sp, #24]
	add	w8, w8, #1                      // =1
	str	w8, [sp, #24]
	b	.LBB9_1
.LBB9_12:
	ldr	w8, [sp, #16]
	ldr	x9, [sp, #32]
	ldrh	w9, [x9, #4]
	subs	w8, w8, w9
	b.eq	.LBB9_14
// %bb.13:
	ldr	w1, [sp, #16]
	ldr	x8, [sp, #32]
	ldrh	w2, [x8, #4]
	ldrh	w3, [sp, #30]
	adrp	x0, .L.str.90
	add	x0, x0, :lo12:.L.str.90
	bl	nand_print
	mov	w8, #1
	stur	w8, [x29, #-4]
	b	.LBB9_15
.LBB9_14:
	stur	wzr, [x29, #-4]
.LBB9_15:
	ldur	w0, [x29, #-4]
	ldp	x29, x30, [sp, #64]             // 16-byte Folded Reload
	add	sp, sp, #80                     // =80
	ret
.Lfunc_end9:
	.size	check_invalid_page_right, .Lfunc_end9-check_invalid_page_right
	.cfi_endproc
                                        // -- End function
	.globl	get_logic_page_map              // -- Begin function get_logic_page_map
	.p2align	2
	.type	get_logic_page_map,@function
get_logic_page_map:                     // @get_logic_page_map
	.cfi_startproc
// %bb.0:
	sub	sp, sp, #64                     // =64
	stp	x29, x30, [sp, #48]             // 16-byte Folded Spill
	add	x29, sp, #48                    // =48
	.cfi_def_cfa w29, 16
	.cfi_offset w30, -8
	.cfi_offset w29, -16
	stur	x0, [x29, #-16]
	stur	w1, [x29, #-20]
	ldur	w8, [x29, #-20]
	ldur	x9, [x29, #-16]
	ldr	w9, [x9, #36]
	subs	w8, w8, w9
	b.lo	.LBB10_2
// %bb.1:
	ldur	w2, [x29, #-20]
	ldur	x8, [x29, #-16]
	ldr	w3, [x8, #36]
	adrp	x0, .L.str.39
	add	x0, x0, :lo12:.L.str.39
	adrp	x1, .L__func__.get_logic_page_map
	add	x1, x1, :lo12:.L__func__.get_logic_page_map
	bl	nand_print
	str	xzr, [sp, #16]
	ldr	x8, [sp, #16]
	stur	x8, [x29, #-8]
	b	.LBB10_6
.LBB10_2:
	mov	w8, #262144
	str	w8, [sp]
	str	wzr, [sp, #4]
.LBB10_3:                               // =>This Inner Loop Header: Depth=1
	ldur	w8, [x29, #-20]
	ldr	w9, [sp]
	subs	w8, w8, w9
	b.lo	.LBB10_5
// %bb.4:                               //   in Loop: Header=BB10_3 Depth=1
	ldr	w8, [sp, #4]
	add	w8, w8, #1                      // =1
	str	w8, [sp, #4]
	ldr	w9, [sp]
	ldur	w8, [x29, #-20]
	subs	w8, w8, w9
	stur	w8, [x29, #-20]
	b	.LBB10_3
.LBB10_5:
	ldur	x8, [x29, #-16]
	add	x8, x8, #72                     // =72
	ldr	w9, [sp, #4]
                                        // kill: def $x9 killed $w9
	ldr	x8, [x8, x9, lsl #3]
	str	x8, [sp, #8]
	ldr	x8, [sp, #8]
	ldur	w9, [x29, #-20]
                                        // kill: def $x9 killed $w9
	add	x8, x8, x9, lsl #2
	str	x8, [sp, #16]
	ldr	x8, [sp, #16]
	stur	x8, [x29, #-8]
.LBB10_6:
	ldur	x0, [x29, #-8]
	ldp	x29, x30, [sp, #48]             // 16-byte Folded Reload
	add	sp, sp, #64                     // =64
	ret
.Lfunc_end10:
	.size	get_logic_page_map, .Lfunc_end10-get_logic_page_map
	.cfi_endproc
                                        // -- End function
	.globl	get_logic_page_from_oob         // -- Begin function get_logic_page_from_oob
	.p2align	2
	.type	get_logic_page_from_oob,@function
get_logic_page_from_oob:                // @get_logic_page_from_oob
	.cfi_startproc
// %bb.0:
	sub	sp, sp, #32                     // =32
	stp	x29, x30, [sp, #16]             // 16-byte Folded Spill
	add	x29, sp, #16                    // =16
	.cfi_def_cfa w29, 16
	.cfi_offset w30, -8
	.cfi_offset w29, -16
	str	x0, [sp, #8]
	ldr	x0, [sp, #8]
	mov	w1, #1
	mov	w2, #4
	bl	get_spare_data
	str	w0, [sp, #4]
	ldr	w8, [sp, #4]
	and	w8, w8, #0xfffffff
	str	w8, [sp, #4]
	ldr	w0, [sp, #4]
	ldp	x29, x30, [sp, #16]             // 16-byte Folded Reload
	add	sp, sp, #32                     // =32
	ret
.Lfunc_end11:
	.size	get_logic_page_from_oob, .Lfunc_end11-get_logic_page_from_oob
	.cfi_endproc
                                        // -- End function
	.globl	nand_write_logic_page_no_gc     // -- Begin function nand_write_logic_page_no_gc
	.p2align	2
	.type	nand_write_logic_page_no_gc,@function
nand_write_logic_page_no_gc:            // @nand_write_logic_page_no_gc
	.cfi_startproc
// %bb.0:
	sub	sp, sp, #48                     // =48
	stp	x29, x30, [sp, #32]             // 16-byte Folded Spill
	add	x29, sp, #32                    // =32
	.cfi_def_cfa w29, 16
	.cfi_offset w30, -8
	.cfi_offset w29, -16
	stur	x0, [x29, #-8]
	stur	w1, [x29, #-12]
	str	x2, [sp, #8]
	ldur	x0, [x29, #-8]
	ldur	w2, [x29, #-12]
	ldr	x3, [sp, #8]
	mov	w1, #192
	bl	nand_write_data_page
	str	w0, [sp, #4]
	ldr	w0, [sp, #4]
	ldp	x29, x30, [sp, #32]             // 16-byte Folded Reload
	add	sp, sp, #48                     // =48
	ret
.Lfunc_end12:
	.size	nand_write_logic_page_no_gc, .Lfunc_end12-nand_write_logic_page_no_gc
	.cfi_endproc
                                        // -- End function
	.globl	erase_block                     // -- Begin function erase_block
	.p2align	2
	.type	erase_block,@function
erase_block:                            // @erase_block
	.cfi_startproc
// %bb.0:
	sub	sp, sp, #80                     // =80
	stp	x29, x30, [sp, #64]             // 16-byte Folded Spill
	add	x29, sp, #64                    // =64
	.cfi_def_cfa w29, 16
	.cfi_offset w30, -8
	.cfi_offset w29, -16
	stur	x0, [x29, #-8]
	stur	x1, [x29, #-16]
	sturh	w2, [x29, #-18]
	ldur	x8, [x29, #-16]
	ldrh	w1, [x8]
	adrp	x0, .L.str.192
	add	x0, x0, :lo12:.L.str.192
	bl	nand_print
	ldur	x8, [x29, #-16]
	ldrh	w1, [x8]
	ldur	x8, [x29, #-8]
	ldr	x8, [x8, #8]
	ldrh	w3, [x8, #28]
	add	x0, sp, #16                     // =16
	str	x0, [sp, #8]                    // 8-byte Folded Spill
	mov	w2, wzr
	mov	x5, xzr
	mov	x4, x5
	bl	set_physic_op_par
	ldr	x1, [sp, #8]                    // 8-byte Folded Reload
	ldur	x8, [x29, #-8]
	ldr	x8, [x8, #3464]
	ldur	x0, [x29, #-8]
	blr	x8
	stur	w0, [x29, #-24]
	ldur	w8, [x29, #-24]
	cbz	w8, .LBB13_2
// %bb.1:
	ldur	x8, [x29, #-16]
	ldrh	w1, [x8]
	adrp	x0, .L.str.193
	add	x0, x0, :lo12:.L.str.193
	bl	nand_print
	ldur	x8, [x29, #-8]
	ldr	x8, [x8, #3504]
	ldur	x0, [x29, #-8]
	add	x1, sp, #16                     // =16
	blr	x8
	ldur	x8, [x29, #-16]
	strh	wzr, [x8, #4]
	ldur	x9, [x29, #-16]
	mov	w8, #255
	strh	w8, [x9, #2]
	ldur	x9, [x29, #-8]
	ldrh	w8, [x9, #28]
	add	w8, w8, #1                      // =1
	strh	w8, [x9, #28]
	b	.LBB13_3
.LBB13_2:
	ldurh	w8, [x29, #-18]
	ldur	x9, [x29, #-16]
	strh	w8, [x9, #6]
	ldur	x9, [x29, #-16]
	mov	w8, #-1
	str	w8, [x9, #8]
	ldur	x0, [x29, #-8]
	ldur	x1, [x29, #-16]
	bl	put_phy_block_to_free_list
	ldur	x0, [x29, #-8]
	ldur	x1, [x29, #-16]
	bl	mark_free_block
	ldur	x8, [x29, #-8]
	ldr	x8, [x8, #8]
	ldrh	w8, [x8, #20]
	ldur	x9, [x29, #-16]
	strh	w8, [x9, #4]
	ldur	x8, [x29, #-16]
	strh	wzr, [x8, #2]
	ldur	x0, [x29, #-8]
	ldur	x1, [x29, #-16]
	bl	out_phy_block_from_used_list_by_block
	ldur	x0, [x29, #-8]
	ldur	x1, [x29, #-16]
	bl	out_phy_block_from_invalid_page_list_by_block
.LBB13_3:
	ldur	w0, [x29, #-24]
	ldp	x29, x30, [sp, #64]             // 16-byte Folded Reload
	add	sp, sp, #80                     // =80
	ret
.Lfunc_end13:
	.size	erase_block, .Lfunc_end13-erase_block
	.cfi_endproc
                                        // -- End function
	.globl	put_phy_block_to_invalid_page_list // -- Begin function put_phy_block_to_invalid_page_list
	.p2align	2
	.type	put_phy_block_to_invalid_page_list,@function
put_phy_block_to_invalid_page_list:     // @put_phy_block_to_invalid_page_list
	.cfi_startproc
// %bb.0:
	sub	sp, sp, #48                     // =48
	stp	x29, x30, [sp, #32]             // 16-byte Folded Spill
	add	x29, sp, #32                    // =32
	.cfi_def_cfa w29, 16
	.cfi_offset w30, -8
	.cfi_offset w29, -16
	stur	x0, [x29, #-8]
	str	x1, [sp, #16]
	ldr	x8, [sp, #16]
	str	xzr, [x8, #16]
	ldr	x8, [sp, #16]
	str	xzr, [x8, #24]
	ldur	x0, [x29, #-8]
	ldr	x1, [sp, #16]
	bl	add_block_invalid_list
	str	w0, [sp, #12]
	ldr	w8, [sp, #12]
	cbz	w8, .LBB14_2
// %bb.1:
	adrp	x0, .L.str.53
	add	x0, x0, :lo12:.L.str.53
	bl	nand_print_dbg
.LBB14_2:
	ldr	w0, [sp, #12]
	ldp	x29, x30, [sp, #32]             // 16-byte Folded Reload
	add	sp, sp, #48                     // =48
	ret
.Lfunc_end14:
	.size	put_phy_block_to_invalid_page_list, .Lfunc_end14-put_phy_block_to_invalid_page_list
	.cfi_endproc
                                        // -- End function
	.globl	adjust_invaild_list             // -- Begin function adjust_invaild_list
	.p2align	2
	.type	adjust_invaild_list,@function
adjust_invaild_list:                    // @adjust_invaild_list
	.cfi_startproc
// %bb.0:
	sub	sp, sp, #32                     // =32
	stp	x29, x30, [sp, #16]             // 16-byte Folded Spill
	add	x29, sp, #16                    // =16
	.cfi_def_cfa w29, 16
	.cfi_offset w30, -8
	.cfi_offset w29, -16
	str	x0, [sp, #8]
.LBB15_1:                               // =>This Inner Loop Header: Depth=1
	ldr	x8, [sp, #8]
	ldr	x8, [x8, #352]
	cbz	x8, .LBB15_6
// %bb.2:                               //   in Loop: Header=BB15_1 Depth=1
	ldr	x8, [sp, #8]
	ldr	x8, [x8, #352]
	str	x8, [sp]
	ldr	x8, [sp]
	ldrh	w8, [x8, #4]
	ldr	x9, [sp, #8]
	ldr	x9, [x9, #8]
	ldrh	w9, [x9, #20]
	subs	w8, w8, w9
	b.ne	.LBB15_4
// %bb.3:                               //   in Loop: Header=BB15_1 Depth=1
	ldr	x0, [sp, #8]
	bl	out_phy_block_from_invalid_page_list
	str	x0, [sp]
	ldr	x0, [sp, #8]
	ldr	x1, [sp]
	bl	put_phy_block_to_free_list
	ldr	x0, [sp, #8]
	ldr	x1, [sp]
	bl	out_phy_block_from_used_list_by_block
	b	.LBB15_5
.LBB15_4:
	b	.LBB15_6
.LBB15_5:                               //   in Loop: Header=BB15_1 Depth=1
	b	.LBB15_1
.LBB15_6:
	mov	w0, wzr
	ldp	x29, x30, [sp, #16]             // 16-byte Folded Reload
	add	sp, sp, #32                     // =32
	ret
.Lfunc_end15:
	.size	adjust_invaild_list, .Lfunc_end15-adjust_invaild_list
	.cfi_endproc
                                        // -- End function
	.globl	get_empty_gc_node               // -- Begin function get_empty_gc_node
	.p2align	2
	.type	get_empty_gc_node,@function
get_empty_gc_node:                      // @get_empty_gc_node
	.cfi_startproc
// %bb.0:
	sub	sp, sp, #32                     // =32
	.cfi_def_cfa_offset 32
	str	x0, [sp, #16]
	strh	wzr, [sp, #14]
.LBB16_1:                               // =>This Inner Loop Header: Depth=1
	ldrh	w8, [sp, #14]
	subs	w8, w8, #10                     // =10
	b.ge	.LBB16_6
// %bb.2:                               //   in Loop: Header=BB16_1 Depth=1
	ldr	x8, [sp, #16]
	add	x8, x8, #8                      // =8
	ldrh	w9, [sp, #14]
                                        // kill: def $x9 killed $w9
	add	x8, x8, x9, lsl #5
	ldrh	w8, [x8, #2]
	cbnz	w8, .LBB16_4
// %bb.3:
	ldr	x8, [sp, #16]
	add	x8, x8, #8                      // =8
	ldrh	w9, [sp, #14]
                                        // kill: def $x9 killed $w9
	add	x8, x8, x9, lsl #5
	str	x8, [sp, #24]
	b	.LBB16_7
.LBB16_4:                               //   in Loop: Header=BB16_1 Depth=1
// %bb.5:                               //   in Loop: Header=BB16_1 Depth=1
	ldrh	w8, [sp, #14]
	add	w8, w8, #1                      // =1
	strh	w8, [sp, #14]
	b	.LBB16_1
.LBB16_6:
	str	xzr, [sp, #24]
.LBB16_7:
	ldr	x0, [sp, #24]
	add	sp, sp, #32                     // =32
	ret
.Lfunc_end16:
	.size	get_empty_gc_node, .Lfunc_end16-get_empty_gc_node
	.cfi_endproc
                                        // -- End function
	.globl	search_gc_node                  // -- Begin function search_gc_node
	.p2align	2
	.type	search_gc_node,@function
search_gc_node:                         // @search_gc_node
	.cfi_startproc
// %bb.0:
	sub	sp, sp, #32                     // =32
	.cfi_def_cfa_offset 32
	str	x0, [sp, #16]
	str	x1, [sp, #8]
	ldr	x8, [sp, #16]
	add	x8, x8, #328                    // =328
	str	x8, [sp]
	ldr	x8, [sp]
	ldr	x8, [x8, #16]
	str	x8, [sp]
.LBB17_1:                               // =>This Inner Loop Header: Depth=1
	ldr	x8, [sp]
	cbz	x8, .LBB17_6
// %bb.2:                               //   in Loop: Header=BB17_1 Depth=1
	ldr	x8, [sp]
	ldr	x8, [x8, #8]
	ldr	x9, [sp, #8]
	subs	x8, x8, x9
	b.ne	.LBB17_4
// %bb.3:
	ldr	x8, [sp]
	str	x8, [sp, #24]
	b	.LBB17_7
.LBB17_4:                               //   in Loop: Header=BB17_1 Depth=1
// %bb.5:                               //   in Loop: Header=BB17_1 Depth=1
	ldr	x8, [sp]
	ldr	x8, [x8, #16]
	str	x8, [sp]
	b	.LBB17_1
.LBB17_6:
	str	xzr, [sp, #24]
.LBB17_7:
	ldr	x0, [sp, #24]
	add	sp, sp, #32                     // =32
	ret
.Lfunc_end17:
	.size	search_gc_node, .Lfunc_end17-search_gc_node
	.cfi_endproc
                                        // -- End function
	.globl	add_to_gc_list_tail             // -- Begin function add_to_gc_list_tail
	.p2align	2
	.type	add_to_gc_list_tail,@function
add_to_gc_list_tail:                    // @add_to_gc_list_tail
	.cfi_startproc
// %bb.0:
	sub	sp, sp, #32                     // =32
	.cfi_def_cfa_offset 32
	str	x0, [sp, #24]
	str	x1, [sp, #16]
	ldr	x8, [sp, #24]
	add	x8, x8, #328                    // =328
	str	x8, [sp, #8]
.LBB18_1:                               // =>This Inner Loop Header: Depth=1
	ldr	x8, [sp, #8]
	ldr	x8, [x8, #16]
	cbz	x8, .LBB18_3
// %bb.2:                               //   in Loop: Header=BB18_1 Depth=1
	ldr	x8, [sp, #8]
	ldr	x8, [x8, #16]
	str	x8, [sp, #8]
	b	.LBB18_1
.LBB18_3:
	ldr	x8, [sp, #16]
	ldr	x9, [sp, #8]
	str	x8, [x9, #16]
	ldr	x8, [sp, #16]
	str	xzr, [x8, #16]
	ldr	x8, [sp, #8]
	ldr	x9, [sp, #16]
	str	x8, [x9, #24]
	ldr	x9, [sp, #24]
	ldrh	w8, [x9]
	add	w8, w8, #1                      // =1
	strh	w8, [x9]
	mov	w0, wzr
	add	sp, sp, #32                     // =32
	ret
.Lfunc_end18:
	.size	add_to_gc_list_tail, .Lfunc_end18-add_to_gc_list_tail
	.cfi_endproc
                                        // -- End function
	.globl	del_from_gc_list                // -- Begin function del_from_gc_list
	.p2align	2
	.type	del_from_gc_list,@function
del_from_gc_list:                       // @del_from_gc_list
	.cfi_startproc
// %bb.0:
	sub	sp, sp, #32                     // =32
	.cfi_def_cfa_offset 32
	str	x0, [sp, #24]
	str	x1, [sp, #16]
	ldr	x8, [sp, #16]
	ldr	x8, [x8, #24]
	str	x8, [sp, #8]
	ldr	x8, [sp, #16]
	ldr	x8, [x8, #16]
	ldr	x9, [sp, #8]
	str	x8, [x9, #16]
	ldr	x8, [sp, #16]
	ldr	x8, [x8, #16]
	cbz	x8, .LBB19_2
// %bb.1:
	ldr	x8, [sp, #8]
	ldr	x9, [sp, #16]
	ldr	x9, [x9, #16]
	str	x8, [x9, #24]
.LBB19_2:
	ldr	x8, [sp, #16]
	str	xzr, [x8, #16]
	ldr	x8, [sp, #16]
	str	xzr, [x8, #24]
	ldr	x9, [sp, #24]
	ldrh	w8, [x9]
	subs	w8, w8, #1                      // =1
	strh	w8, [x9]
	ldr	x0, [sp, #16]
	add	sp, sp, #32                     // =32
	ret
.Lfunc_end19:
	.size	del_from_gc_list, .Lfunc_end19-del_from_gc_list
	.cfi_endproc
                                        // -- End function
	.globl	add_prio_gc                     // -- Begin function add_prio_gc
	.p2align	2
	.type	add_prio_gc,@function
add_prio_gc:                            // @add_prio_gc
	.cfi_startproc
// %bb.0:
	sub	sp, sp, #64                     // =64
	stp	x29, x30, [sp, #48]             // 16-byte Folded Spill
	add	x29, sp, #48                    // =48
	.cfi_def_cfa w29, 16
	.cfi_offset w30, -8
	.cfi_offset w29, -16
	stur	x0, [x29, #-16]
	str	x1, [sp, #24]
	strh	w2, [sp, #22]
	ldur	x8, [x29, #-16]
	add	x0, x8, #696                    // =696
	ldr	x1, [sp, #24]
	bl	search_gc_node
	str	x0, [sp, #8]
	ldr	x8, [sp, #8]
	cbz	x8, .LBB20_2
// %bb.1:
	mov	w8, #1
	stur	w8, [x29, #-4]
	b	.LBB20_5
.LBB20_2:
	ldur	x8, [x29, #-16]
	add	x0, x8, #696                    // =696
	bl	get_empty_gc_node
	str	x0, [sp, #8]
	ldr	x8, [sp, #8]
	cbnz	x8, .LBB20_4
// %bb.3:
	mov	w8, #1
	stur	w8, [x29, #-4]
	b	.LBB20_5
.LBB20_4:
	ldr	x8, [sp, #24]
	ldr	x9, [sp, #8]
	str	x8, [x9, #8]
	ldrh	w8, [sp, #22]
	ldr	x9, [sp, #8]
	strh	w8, [x9, #2]
	ldr	x8, [sp, #8]
	str	xzr, [x8, #16]
	ldr	x8, [sp, #8]
	str	xzr, [x8, #24]
	ldur	x8, [x29, #-16]
	add	x0, x8, #696                    // =696
	ldr	x1, [sp, #8]
	bl	add_to_gc_list_tail
	stur	wzr, [x29, #-4]
.LBB20_5:
	ldur	w0, [x29, #-4]
	ldp	x29, x30, [sp, #48]             // 16-byte Folded Reload
	add	sp, sp, #64                     // =64
	ret
.Lfunc_end20:
	.size	add_prio_gc, .Lfunc_end20-add_prio_gc
	.cfi_endproc
                                        // -- End function
	.globl	do_prio_gc                      // -- Begin function do_prio_gc
	.p2align	2
	.type	do_prio_gc,@function
do_prio_gc:                             // @do_prio_gc
	.cfi_startproc
// %bb.0:
	sub	sp, sp, #64                     // =64
	stp	x29, x30, [sp, #48]             // 16-byte Folded Spill
	add	x29, sp, #48                    // =48
	.cfi_def_cfa w29, 16
	.cfi_offset w30, -8
	.cfi_offset w29, -16
	stur	x0, [x29, #-16]
	ldur	x8, [x29, #-16]
	ldr	x8, [x8, #1040]
	cbnz	x8, .LBB21_2
// %bb.1:
	stur	wzr, [x29, #-4]
	b	.LBB21_27
.LBB21_2:
	ldur	x8, [x29, #-16]
	add	x0, x8, #696                    // =696
	ldur	x8, [x29, #-16]
	ldr	x1, [x8, #1040]
	bl	del_from_gc_list
	str	x0, [sp, #16]
	ldur	x0, [x29, #-16]
	ldr	x8, [sp, #16]
	ldr	x1, [x8, #8]
	bl	is_current_blcok
	subs	w8, w0, #1                      // =1
	b.ne	.LBB21_4
// %bb.3:
	ldur	x8, [x29, #-16]
	add	x0, x8, #696                    // =696
	ldr	x1, [sp, #16]
	bl	add_to_gc_list_tail
	stur	wzr, [x29, #-4]
	b	.LBB21_27
.LBB21_4:
	ldr	x8, [sp, #16]
	ldr	x8, [x8, #8]
	cbnz	x8, .LBB21_6
// %bb.5:
	adrp	x0, .L.str.16
	add	x0, x0, :lo12:.L.str.16
	bl	nand_print_dbg
	ldr	x8, [sp, #16]
	strh	wzr, [x8, #2]
	ldur	x8, [x29, #-16]
	strh	wzr, [x8, #698]
	ldr	x8, [sp, #16]
	str	xzr, [x8, #8]
	stur	wzr, [x29, #-4]
	b	.LBB21_27
.LBB21_6:
	ldur	x0, [x29, #-16]
	ldr	x8, [sp, #16]
	ldr	x1, [x8, #8]
	bl	is_block_in_invalid_list
	cbnz	w0, .LBB21_8
// %bb.7:
	ldr	x8, [sp, #16]
	ldr	x8, [x8, #8]
	ldrh	w1, [x8]
	ldr	x8, [sp, #16]
	ldrh	w2, [x8, #2]
	adrp	x0, .L.str.17
	add	x0, x0, :lo12:.L.str.17
	bl	nand_print_dbg
	ldr	x8, [sp, #16]
	strh	wzr, [x8, #2]
	ldur	x8, [x29, #-16]
	strh	wzr, [x8, #698]
	ldr	x8, [sp, #16]
	str	xzr, [x8, #8]
	stur	wzr, [x29, #-4]
	b	.LBB21_27
.LBB21_8:
	ldr	x8, [sp, #16]
	ldrh	w8, [x8, #2]
	ldur	x9, [x29, #-16]
	strh	w8, [x9, #698]
	ldr	x8, [sp, #16]
	ldrh	w8, [x8, #2]
	subs	w8, w8, #5                      // =5
	b.ne	.LBB21_10
// %bb.9:
	ldur	x0, [x29, #-16]
	ldr	x8, [sp, #16]
	ldr	x1, [x8, #8]
	mov	w2, #4
	bl	garbage_collect_first
	stur	w0, [x29, #-20]
	ldr	x8, [sp, #16]
	strh	wzr, [x8, #2]
	ldur	x8, [x29, #-16]
	strh	wzr, [x8, #698]
	ldr	x8, [sp, #16]
	str	xzr, [x8, #8]
	stur	wzr, [x29, #-4]
	b	.LBB21_27
.LBB21_10:
	ldur	x0, [x29, #-16]
	ldr	x8, [sp, #16]
	ldr	x1, [x8, #8]
	mov	w2, #-1
	bl	garbage_collect_first
	stur	w0, [x29, #-20]
// %bb.11:
	ldur	w8, [x29, #-20]
	cbz	w8, .LBB21_13
// %bb.12:
	ldr	x8, [sp, #16]
	ldr	x8, [x8, #8]
	ldrh	w1, [x8]
	ldr	x8, [sp, #16]
	ldrh	w2, [x8, #2]
	adrp	x0, .L.str.18
	add	x0, x0, :lo12:.L.str.18
	bl	nand_print
	ldr	x8, [sp, #16]
	strh	wzr, [x8, #2]
	ldur	x8, [x29, #-16]
	strh	wzr, [x8, #698]
	ldr	x8, [sp, #16]
	str	xzr, [x8, #8]
	mov	w8, #1
	stur	w8, [x29, #-4]
	b	.LBB21_27
.LBB21_13:
	ldur	x0, [x29, #-16]
	ldr	x8, [sp, #16]
	ldr	x1, [x8, #8]
	bl	is_block_in_free_list
	cbnz	w0, .LBB21_15
// %bb.14:
	ldr	x8, [sp, #16]
	ldr	x8, [x8, #8]
	ldrh	w1, [x8]
	ldr	x8, [sp, #16]
	ldrh	w2, [x8, #2]
	adrp	x0, .L.str.19
	add	x0, x0, :lo12:.L.str.19
	bl	nand_print_dbg
	ldr	x8, [sp, #16]
	strh	wzr, [x8, #2]
	ldur	x8, [x29, #-16]
	strh	wzr, [x8, #698]
	ldr	x8, [sp, #16]
	str	xzr, [x8, #8]
	stur	wzr, [x29, #-4]
	b	.LBB21_27
.LBB21_15:
	ldur	x0, [x29, #-16]
	ldr	x8, [sp, #16]
	ldr	x1, [x8, #8]
	bl	out_phy_block_from_free_list_by_block
	str	x0, [sp, #8]
	ldr	x8, [sp, #8]
	cbnz	x8, .LBB21_17
// %bb.16:
	ldr	x8, [sp, #16]
	ldr	x8, [x8, #8]
	ldrh	w1, [x8]
	ldr	x8, [sp, #16]
	ldrh	w2, [x8, #2]
	adrp	x0, .L.str.20
	add	x0, x0, :lo12:.L.str.20
	bl	nand_print_dbg
	ldr	x8, [sp, #16]
	strh	wzr, [x8, #2]
	ldur	x8, [x29, #-16]
	strh	wzr, [x8, #698]
	ldr	x8, [sp, #16]
	str	xzr, [x8, #8]
	stur	wzr, [x29, #-4]
	b	.LBB21_27
.LBB21_17:
	ldur	x8, [x29, #-16]
	ldrh	w8, [x8, #698]
	subs	w8, w8, #1                      // =1
	b.ne	.LBB21_19
// %bb.18:
	ldur	x0, [x29, #-16]
	ldr	x1, [sp, #8]
	ldr	x8, [sp, #8]
	ldrh	w8, [x8, #6]
	add	w2, w8, #1                      // =1
	bl	erase_block
	b	.LBB21_26
.LBB21_19:
	ldur	x8, [x29, #-16]
	ldrh	w8, [x8, #698]
	subs	w8, w8, #2                      // =2
	b.ne	.LBB21_21
// %bb.20:
	ldur	x0, [x29, #-16]
	ldr	x1, [sp, #8]
	ldr	x8, [sp, #8]
	ldrh	w8, [x8, #6]
	add	w2, w8, #1                      // =1
	bl	erase_block
	b	.LBB21_25
.LBB21_21:
	ldur	x8, [x29, #-16]
	ldrh	w8, [x8, #698]
	subs	w8, w8, #4                      // =4
	b.ne	.LBB21_23
// %bb.22:
	ldur	x0, [x29, #-16]
	ldr	x1, [sp, #8]
	ldr	x8, [sp, #8]
	ldrh	w8, [x8, #6]
	add	w2, w8, #1                      // =1
	bl	erase_block
	b	.LBB21_24
.LBB21_23:
	ldur	x0, [x29, #-16]
	ldr	x1, [sp, #8]
	ldr	x8, [sp, #8]
	ldrh	w8, [x8, #6]
	add	w2, w8, #1                      // =1
	bl	erase_block
.LBB21_24:
.LBB21_25:
.LBB21_26:
	ldr	x8, [sp, #16]
	strh	wzr, [x8, #2]
	ldur	x8, [x29, #-16]
	strh	wzr, [x8, #698]
	ldr	x8, [sp, #16]
	str	xzr, [x8, #8]
	stur	wzr, [x29, #-4]
.LBB21_27:
	ldur	w0, [x29, #-4]
	ldp	x29, x30, [sp, #48]             // 16-byte Folded Reload
	add	sp, sp, #64                     // =64
	ret
.Lfunc_end21:
	.size	do_prio_gc, .Lfunc_end21-do_prio_gc
	.cfi_endproc
                                        // -- End function
	.globl	is_block_in_invalid_list        // -- Begin function is_block_in_invalid_list
	.p2align	2
	.type	is_block_in_invalid_list,@function
is_block_in_invalid_list:               // @is_block_in_invalid_list
	.cfi_startproc
// %bb.0:
	sub	sp, sp, #32                     // =32
	.cfi_def_cfa_offset 32
	str	x0, [sp, #16]
	str	x1, [sp, #8]
	ldr	x8, [sp, #16]
	add	x8, x8, #336                    // =336
	str	x8, [sp]
	ldr	x8, [sp]
	ldr	x8, [x8, #16]
	str	x8, [sp]
.LBB22_1:                               // =>This Inner Loop Header: Depth=1
	ldr	x8, [sp]
	cbz	x8, .LBB22_6
// %bb.2:                               //   in Loop: Header=BB22_1 Depth=1
	ldr	x8, [sp]
	ldr	x9, [sp, #8]
	subs	x8, x8, x9
	b.ne	.LBB22_4
// %bb.3:
	mov	w8, #1
	str	w8, [sp, #28]
	b	.LBB22_7
.LBB22_4:                               //   in Loop: Header=BB22_1 Depth=1
// %bb.5:                               //   in Loop: Header=BB22_1 Depth=1
	ldr	x8, [sp]
	ldr	x8, [x8, #16]
	str	x8, [sp]
	b	.LBB22_1
.LBB22_6:
	str	wzr, [sp, #28]
.LBB22_7:
	ldr	w0, [sp, #28]
	add	sp, sp, #32                     // =32
	ret
.Lfunc_end22:
	.size	is_block_in_invalid_list, .Lfunc_end22-is_block_in_invalid_list
	.cfi_endproc
                                        // -- End function
	.globl	is_block_in_free_list           // -- Begin function is_block_in_free_list
	.p2align	2
	.type	is_block_in_free_list,@function
is_block_in_free_list:                  // @is_block_in_free_list
	.cfi_startproc
// %bb.0:
	sub	sp, sp, #32                     // =32
	.cfi_def_cfa_offset 32
	str	x0, [sp, #16]
	str	x1, [sp, #8]
	ldr	x8, [sp, #16]
	add	x8, x8, #272                    // =272
	str	x8, [sp]
	ldr	x8, [sp]
	ldr	x8, [x8, #32]
	str	x8, [sp]
.LBB23_1:                               // =>This Inner Loop Header: Depth=1
	ldr	x8, [sp]
	cbz	x8, .LBB23_6
// %bb.2:                               //   in Loop: Header=BB23_1 Depth=1
	ldr	x8, [sp]
	ldr	x9, [sp, #8]
	subs	x8, x8, x9
	b.ne	.LBB23_4
// %bb.3:
	mov	w8, #1
	str	w8, [sp, #28]
	b	.LBB23_7
.LBB23_4:                               //   in Loop: Header=BB23_1 Depth=1
// %bb.5:                               //   in Loop: Header=BB23_1 Depth=1
	ldr	x8, [sp]
	ldr	x8, [x8, #32]
	str	x8, [sp]
	b	.LBB23_1
.LBB23_6:
	str	wzr, [sp, #28]
.LBB23_7:
	ldr	w0, [sp, #28]
	add	sp, sp, #32                     // =32
	ret
.Lfunc_end23:
	.size	is_block_in_free_list, .Lfunc_end23-is_block_in_free_list
	.cfi_endproc
                                        // -- End function
	.globl	out_phy_block_from_free_list_by_block // -- Begin function out_phy_block_from_free_list_by_block
	.p2align	2
	.type	out_phy_block_from_free_list_by_block,@function
out_phy_block_from_free_list_by_block:  // @out_phy_block_from_free_list_by_block
	.cfi_startproc
// %bb.0:
	sub	sp, sp, #48                     // =48
	stp	x29, x30, [sp, #32]             // 16-byte Folded Spill
	add	x29, sp, #32                    // =32
	.cfi_def_cfa w29, 16
	.cfi_offset w30, -8
	.cfi_offset w29, -16
	str	x0, [sp, #16]
	str	x1, [sp, #8]
	ldr	x0, [sp, #16]
	ldr	x1, [sp, #8]
	bl	del_free_list_by_block
	str	x0, [sp]
	ldr	x8, [sp]
	cbz	x8, .LBB24_4
// %bb.1:
	ldr	x8, [sp]
	str	xzr, [x8, #32]
	ldr	x8, [sp]
	str	xzr, [x8, #40]
	ldr	x8, [sp, #16]
	ldrh	w8, [x8, #30]
	subs	w8, w8, #0                      // =0
	b.le	.LBB24_3
// %bb.2:
	ldr	x9, [sp, #16]
	ldrh	w10, [x9, #30]
	mov	w8, #-1
	add	w8, w8, w10, uxth
	strh	w8, [x9, #30]
.LBB24_3:
	ldr	x8, [sp]
	stur	x8, [x29, #-8]
	b	.LBB24_5
.LBB24_4:
	ldr	x8, [sp]
	stur	x8, [x29, #-8]
.LBB24_5:
	ldur	x0, [x29, #-8]
	ldp	x29, x30, [sp, #32]             // 16-byte Folded Reload
	add	sp, sp, #48                     // =48
	ret
.Lfunc_end24:
	.size	out_phy_block_from_free_list_by_block, .Lfunc_end24-out_phy_block_from_free_list_by_block
	.cfi_endproc
                                        // -- End function
	.globl	prio_gc_all                     // -- Begin function prio_gc_all
	.p2align	2
	.type	prio_gc_all,@function
prio_gc_all:                            // @prio_gc_all
	.cfi_startproc
// %bb.0:
	sub	sp, sp, #32                     // =32
	stp	x29, x30, [sp, #16]             // 16-byte Folded Spill
	add	x29, sp, #16                    // =16
	.cfi_def_cfa w29, 16
	.cfi_offset w30, -8
	.cfi_offset w29, -16
	str	x0, [sp, #8]
	str	wzr, [sp]
	str	wzr, [sp, #4]
.LBB25_1:                               // =>This Inner Loop Header: Depth=1
	ldr	w8, [sp, #4]
	subs	w8, w8, #10                     // =10
	b.hs	.LBB25_4
// %bb.2:                               //   in Loop: Header=BB25_1 Depth=1
	ldr	x0, [sp, #8]
	bl	do_prio_gc
	ldr	w8, [sp]
	orr	w8, w8, w0
	str	w8, [sp]
// %bb.3:                               //   in Loop: Header=BB25_1 Depth=1
	ldr	w8, [sp, #4]
	add	w8, w8, #1                      // =1
	str	w8, [sp, #4]
	b	.LBB25_1
.LBB25_4:
	ldr	w0, [sp]
	ldp	x29, x30, [sp, #16]             // 16-byte Folded Reload
	add	sp, sp, #32                     // =32
	ret
.Lfunc_end25:
	.size	prio_gc_all, .Lfunc_end25-prio_gc_all
	.cfi_endproc
                                        // -- End function
	.globl	check_static_wear_leveling      // -- Begin function check_static_wear_leveling
	.p2align	2
	.type	check_static_wear_leveling,@function
check_static_wear_leveling:             // @check_static_wear_leveling
	.cfi_startproc
// %bb.0:
	sub	sp, sp, #64                     // =64
	stp	x29, x30, [sp, #48]             // 16-byte Folded Spill
	add	x29, sp, #48                    // =48
	.cfi_def_cfa w29, 16
	.cfi_offset w30, -8
	.cfi_offset w29, -16
	stur	x0, [x29, #-16]
	str	xzr, [sp, #24]
	str	xzr, [sp, #16]
	mov	w8, #65535
	strh	w8, [sp, #14]
	strh	wzr, [sp, #12]
	ldur	x8, [x29, #-16]
	ldr	x8, [x8, #1064]
	cbz	x8, .LBB26_2
// %bb.1:
	mov	w8, #1
	stur	w8, [x29, #-4]
	b	.LBB26_27
.LBB26_2:
	ldur	x8, [x29, #-16]
	ldr	x8, [x8, #352]
	cbz	x8, .LBB26_4
// %bb.3:
	ldur	x8, [x29, #-16]
	ldr	x8, [x8, #304]
	cbnz	x8, .LBB26_5
.LBB26_4:
	mov	w8, #1
	stur	w8, [x29, #-4]
	b	.LBB26_27
.LBB26_5:
	ldur	x8, [x29, #-16]
	ldr	x8, [x8, #528]
	ldr	w8, [x8, #8]
	ldur	x9, [x29, #-16]
	ldrh	w9, [x9, #26]
	subs	w8, w8, w9
	b.ge	.LBB26_7
// %bb.6:
	mov	w8, #1
	stur	w8, [x29, #-4]
	b	.LBB26_27
.LBB26_7:
	ldur	x0, [x29, #-16]
	ldur	x8, [x29, #-16]
	ldr	x8, [x8, #8]
	ldrh	w1, [x8, #16]
	bl	get_block_max_erase_time_from_free_list
	str	x0, [sp, #16]
	ldr	x8, [sp, #16]
	cbnz	x8, .LBB26_9
// %bb.8:
	mov	w8, #1
	stur	w8, [x29, #-4]
	b	.LBB26_27
.LBB26_9:
	ldr	x8, [sp, #16]
	ldrh	w8, [x8, #6]
	strh	w8, [sp, #12]
	ldrh	w8, [sp, #12]
	ldur	x9, [x29, #-16]
	ldr	x9, [x9, #8]
	ldrh	w9, [x9, #16]
	mov	w10, #5
	sdiv	w9, w9, w10
	subs	w8, w8, w9
	b.ge	.LBB26_11
// %bb.10:
	mov	w8, #1
	stur	w8, [x29, #-4]
	b	.LBB26_27
.LBB26_11:
	ldur	x0, [x29, #-16]
	ldur	x8, [x29, #-16]
	ldr	x8, [x8, #8]
	ldrh	w1, [x8, #16]
	ldur	x8, [x29, #-16]
	ldr	x8, [x8, #528]
	ldr	w8, [x8, #8]
	ldur	x9, [x29, #-16]
	ldrh	w9, [x9, #26]
	subs	w2, w8, w9
	bl	get_block_min_erase_time_from_invalid_list
	str	x0, [sp, #24]
	ldr	x8, [sp, #24]
	cbnz	x8, .LBB26_13
// %bb.12:
	mov	w8, #1
	stur	w8, [x29, #-4]
	b	.LBB26_27
.LBB26_13:
	ldr	x8, [sp, #24]
	ldrh	w8, [x8, #6]
	strh	w8, [sp, #14]
	ldrh	w8, [sp, #12]
	ldrh	w9, [sp, #14]
	subs	w8, w8, w9
	b.gt	.LBB26_15
// %bb.14:
	mov	w8, #1
	stur	w8, [x29, #-4]
	b	.LBB26_27
.LBB26_15:
	ldur	x8, [x29, #-16]
	ldr	x8, [x8, #8]
	ldrh	w8, [x8, #16]
	lsl	w8, w8, #1
	ldrh	w9, [sp, #12]
	mov	w10, #3
	mul	w9, w9, w10
	subs	w8, w8, w9
	b.ge	.LBB26_17
// %bb.16:
	ldur	x8, [x29, #-16]
	ldr	x8, [x8, #8]
	ldrh	w8, [x8, #16]
	mov	w9, #12
	sdiv	w8, w8, w9
	ldur	x9, [x29, #-16]
	strh	w8, [x9, #1058]
	b	.LBB26_24
.LBB26_17:
	ldur	x8, [x29, #-16]
	ldr	x8, [x8, #8]
	ldrh	w8, [x8, #16]
	ldrh	w9, [sp, #12]
	subs	w8, w8, w9, lsl #1
	b.ge	.LBB26_19
// %bb.18:
	ldur	x8, [x29, #-16]
	ldr	x8, [x8, #8]
	ldrh	w8, [x8, #16]
	mov	w9, #10
	sdiv	w8, w8, w9
	ldur	x9, [x29, #-16]
	strh	w8, [x9, #1058]
	b	.LBB26_23
.LBB26_19:
	ldur	x8, [x29, #-16]
	ldr	x8, [x8, #8]
	ldrh	w8, [x8, #16]
	ldrh	w9, [sp, #12]
	mov	w10, #3
	mul	w9, w9, w10
	subs	w8, w8, w9
	b.ge	.LBB26_21
// %bb.20:
	ldur	x8, [x29, #-16]
	ldr	x8, [x8, #8]
	ldrh	w8, [x8, #16]
	mov	w9, #7
	sdiv	w8, w8, w9
	ldur	x9, [x29, #-16]
	strh	w8, [x9, #1058]
	b	.LBB26_22
.LBB26_21:
	ldur	x8, [x29, #-16]
	ldr	x8, [x8, #8]
	ldrh	w8, [x8, #16]
	mov	w9, #5
	sdiv	w8, w8, w9
	ldur	x9, [x29, #-16]
	strh	w8, [x9, #1058]
.LBB26_22:
.LBB26_23:
.LBB26_24:
	ldrh	w8, [sp, #12]
	ldrh	w9, [sp, #14]
	subs	w8, w8, w9
	ldur	x9, [x29, #-16]
	ldrh	w9, [x9, #1058]
	subs	w8, w8, w9
	b.ge	.LBB26_26
// %bb.25:
	mov	w8, #1
	stur	w8, [x29, #-4]
	b	.LBB26_27
.LBB26_26:
	ldrh	w1, [sp, #12]
	ldrh	w2, [sp, #14]
	adrp	x0, .L.str.21
	add	x0, x0, :lo12:.L.str.21
	bl	nand_print_dbg
	ldr	x8, [sp, #24]
	ldrh	w1, [x8]
	adrp	x0, .L.str.22
	add	x0, x0, :lo12:.L.str.22
	bl	nand_print_dbg
	ldur	x8, [x29, #-16]
	ldrh	w1, [x8, #26]
	adrp	x0, .L.str.23
	add	x0, x0, :lo12:.L.str.23
	bl	nand_print_dbg
	ldr	x8, [sp, #24]
	ldur	x9, [x29, #-16]
	str	x8, [x9, #1064]
	stur	wzr, [x29, #-4]
.LBB26_27:
	ldur	w0, [x29, #-4]
	ldp	x29, x30, [sp, #48]             // 16-byte Folded Reload
	add	sp, sp, #64                     // =64
	ret
.Lfunc_end26:
	.size	check_static_wear_leveling, .Lfunc_end26-check_static_wear_leveling
	.cfi_endproc
                                        // -- End function
	.globl	get_block_max_erase_time_from_free_list // -- Begin function get_block_max_erase_time_from_free_list
	.p2align	2
	.type	get_block_max_erase_time_from_free_list,@function
get_block_max_erase_time_from_free_list: // @get_block_max_erase_time_from_free_list
	.cfi_startproc
// %bb.0:
	sub	sp, sp, #48                     // =48
	.cfi_def_cfa_offset 48
	str	x0, [sp, #32]
	strh	w1, [sp, #30]
	str	xzr, [sp, #16]
	strh	wzr, [sp, #14]
	ldr	x8, [sp, #32]
	add	x8, x8, #272                    // =272
	str	x8, [sp]
	ldr	x8, [sp]
	ldr	x8, [x8, #32]
	str	x8, [sp]
.LBB27_1:                               // =>This Inner Loop Header: Depth=1
	ldr	x8, [sp]
	cbz	x8, .LBB27_8
// %bb.2:                               //   in Loop: Header=BB27_1 Depth=1
	ldr	x8, [sp]
	ldrh	w8, [x8, #6]
	ldrh	w9, [sp, #30]
	subs	w8, w8, w9
	b.ge	.LBB27_6
// %bb.3:                               //   in Loop: Header=BB27_1 Depth=1
	ldr	x8, [sp]
	ldrh	w8, [x8, #6]
	ldrh	w9, [sp, #14]
	subs	w8, w8, w9
	b.lt	.LBB27_5
// %bb.4:                               //   in Loop: Header=BB27_1 Depth=1
	ldr	x8, [sp]
	ldrh	w8, [x8, #6]
	strh	w8, [sp, #14]
	ldr	x8, [sp]
	str	x8, [sp, #16]
.LBB27_5:                               //   in Loop: Header=BB27_1 Depth=1
.LBB27_6:                               //   in Loop: Header=BB27_1 Depth=1
// %bb.7:                               //   in Loop: Header=BB27_1 Depth=1
	ldr	x8, [sp]
	ldr	x8, [x8, #32]
	str	x8, [sp]
	b	.LBB27_1
.LBB27_8:
	ldr	x8, [sp, #16]
	cbz	x8, .LBB27_10
// %bb.9:
	ldr	x8, [sp, #16]
	str	x8, [sp, #40]
	b	.LBB27_11
.LBB27_10:
	str	xzr, [sp, #40]
.LBB27_11:
	ldr	x0, [sp, #40]
	add	sp, sp, #48                     // =48
	ret
.Lfunc_end27:
	.size	get_block_max_erase_time_from_free_list, .Lfunc_end27-get_block_max_erase_time_from_free_list
	.cfi_endproc
                                        // -- End function
	.globl	get_block_min_erase_time_from_invalid_list // -- Begin function get_block_min_erase_time_from_invalid_list
	.p2align	2
	.type	get_block_min_erase_time_from_invalid_list,@function
get_block_min_erase_time_from_invalid_list: // @get_block_min_erase_time_from_invalid_list
	.cfi_startproc
// %bb.0:
	sub	sp, sp, #48                     // =48
	.cfi_def_cfa_offset 48
	str	x0, [sp, #32]
	strh	w1, [sp, #30]
	str	w2, [sp, #24]
	str	xzr, [sp, #16]
	ldr	x8, [sp, #32]
	ldr	x8, [x8, #8]
	ldrh	w8, [x8, #16]
	strh	w8, [sp, #14]
	ldr	x8, [sp, #32]
	add	x8, x8, #336                    // =336
	str	x8, [sp]
	ldr	x8, [sp]
	ldr	x8, [x8, #16]
	str	x8, [sp]
.LBB28_1:                               // =>This Inner Loop Header: Depth=1
	ldr	x8, [sp]
	cbz	x8, .LBB28_9
// %bb.2:                               //   in Loop: Header=BB28_1 Depth=1
	ldr	x8, [sp]
	ldrh	w8, [x8, #6]
	ldrh	w9, [sp, #30]
	subs	w8, w8, w9
	b.ge	.LBB28_7
// %bb.3:                               //   in Loop: Header=BB28_1 Depth=1
	ldr	x8, [sp]
	ldr	w8, [x8, #8]
	ldr	w9, [sp, #24]
	subs	w8, w8, w9
	b.hs	.LBB28_7
// %bb.4:                               //   in Loop: Header=BB28_1 Depth=1
	ldr	x8, [sp]
	ldrh	w8, [x8, #6]
	ldrh	w9, [sp, #14]
	subs	w8, w8, w9
	b.gt	.LBB28_6
// %bb.5:                               //   in Loop: Header=BB28_1 Depth=1
	ldr	x8, [sp]
	ldrh	w8, [x8, #6]
	strh	w8, [sp, #14]
	ldr	x8, [sp]
	str	x8, [sp, #16]
.LBB28_6:                               //   in Loop: Header=BB28_1 Depth=1
.LBB28_7:                               //   in Loop: Header=BB28_1 Depth=1
// %bb.8:                               //   in Loop: Header=BB28_1 Depth=1
	ldr	x8, [sp]
	ldr	x8, [x8, #16]
	str	x8, [sp]
	b	.LBB28_1
.LBB28_9:
	ldr	x8, [sp, #16]
	cbz	x8, .LBB28_11
// %bb.10:
	ldr	x8, [sp, #16]
	str	x8, [sp, #40]
	b	.LBB28_12
.LBB28_11:
	str	xzr, [sp, #40]
.LBB28_12:
	ldr	x0, [sp, #40]
	add	sp, sp, #48                     // =48
	ret
.Lfunc_end28:
	.size	get_block_min_erase_time_from_invalid_list, .Lfunc_end28-get_block_min_erase_time_from_invalid_list
	.cfi_endproc
                                        // -- End function
	.globl	done_static_wear_leveling       // -- Begin function done_static_wear_leveling
	.p2align	2
	.type	done_static_wear_leveling,@function
done_static_wear_leveling:              // @done_static_wear_leveling
	.cfi_startproc
// %bb.0:
	sub	sp, sp, #48                     // =48
	stp	x29, x30, [sp, #32]             // 16-byte Folded Spill
	add	x29, sp, #32                    // =32
	.cfi_def_cfa w29, 16
	.cfi_offset w30, -8
	.cfi_offset w29, -16
	str	x0, [sp, #16]
	str	wzr, [sp, #12]
	ldr	x8, [sp, #16]
	ldr	x8, [x8, #1064]
	cbnz	x8, .LBB29_2
// %bb.1:
	mov	w8, #2
	stur	w8, [x29, #-4]
	b	.LBB29_11
.LBB29_2:
	ldr	x0, [sp, #16]
	ldr	x8, [sp, #16]
	ldr	x1, [x8, #1064]
	bl	is_current_blcok
	subs	w8, w0, #1                      // =1
	b.ne	.LBB29_4
// %bb.3:
	ldr	x8, [sp, #16]
	str	xzr, [x8, #1064]
	mov	w8, #2
	stur	w8, [x29, #-4]
	b	.LBB29_11
.LBB29_4:
	ldr	x0, [sp, #16]
	ldr	x8, [sp, #16]
	ldr	x1, [x8, #1064]
	bl	is_block_in_invalid_list
	cbnz	w0, .LBB29_6
// %bb.5:
	ldr	x8, [sp, #16]
	ldr	x8, [x8, #1064]
	ldrh	w1, [x8]
	adrp	x0, .L.str.24
	add	x0, x0, :lo12:.L.str.24
	bl	nand_print_dbg
	ldr	x8, [sp, #16]
	str	xzr, [x8, #1064]
	mov	w8, #2
	stur	w8, [x29, #-4]
	b	.LBB29_11
.LBB29_6:
	ldr	x8, [sp, #16]
	ldr	x8, [x8, #1064]
	ldrh	w1, [x8]
	ldr	x8, [sp, #16]
	ldr	x8, [x8, #1064]
	ldrh	w2, [x8, #6]
	adrp	x0, .L.str.25
	add	x0, x0, :lo12:.L.str.25
	bl	nand_print_dbg
	ldr	x9, [sp, #16]
	mov	w8, #1
	strh	w8, [x9, #1062]
	ldr	x8, [sp, #16]
	ldr	x9, [x8, #3440]
	ldr	w8, [x9, #128]
	add	w8, w8, #1                      // =1
	str	w8, [x9, #128]
	ldr	x0, [sp, #16]
	bl	fill_no_use_data_to_current_block
	ldr	x0, [sp, #16]
	ldr	x8, [sp, #16]
	ldr	x1, [x8, #1064]
	mov	w2, #-1
	bl	garbage_collect_first
	str	w0, [sp, #12]
	ldr	w8, [sp, #12]
	cbz	w8, .LBB29_8
// %bb.7:
	ldr	x8, [sp, #16]
	ldr	x8, [x8, #1064]
	ldrh	w1, [x8]
	adrp	x0, .L.str.26
	add	x0, x0, :lo12:.L.str.26
	bl	nand_print
	ldr	x8, [sp, #16]
	str	xzr, [x8, #1064]
	mov	w8, #1
	stur	w8, [x29, #-4]
	b	.LBB29_11
.LBB29_8:
	ldr	x8, [sp, #16]
	strh	wzr, [x8, #1062]
	ldr	x0, [sp, #16]
	ldr	x8, [sp, #16]
	ldr	x1, [x8, #1064]
	bl	is_block_in_free_list
	cbnz	w0, .LBB29_10
// %bb.9:
	ldr	x8, [sp, #16]
	ldr	x8, [x8, #1064]
	ldrh	w1, [x8]
	adrp	x0, .L.str.27
	add	x0, x0, :lo12:.L.str.27
	bl	nand_print
	ldr	x8, [sp, #16]
	str	xzr, [x8, #1064]
	stur	wzr, [x29, #-4]
	b	.LBB29_11
.LBB29_10:
	ldr	x8, [sp, #16]
	str	xzr, [x8, #1064]
	stur	wzr, [x29, #-4]
.LBB29_11:
	ldur	w0, [x29, #-4]
	ldp	x29, x30, [sp, #32]             // 16-byte Folded Reload
	add	sp, sp, #48                     // =48
	ret
.Lfunc_end29:
	.size	done_static_wear_leveling, .Lfunc_end29-done_static_wear_leveling
	.cfi_endproc
                                        // -- End function
	.globl	fill_no_use_data_to_current_block // -- Begin function fill_no_use_data_to_current_block
	.p2align	2
	.type	fill_no_use_data_to_current_block,@function
fill_no_use_data_to_current_block:      // @fill_no_use_data_to_current_block
	.cfi_startproc
// %bb.0:
	sub	sp, sp, #48                     // =48
	stp	x29, x30, [sp, #32]             // 16-byte Folded Spill
	add	x29, sp, #32                    // =32
	.cfi_def_cfa w29, 16
	.cfi_offset w30, -8
	.cfi_offset w29, -16
	str	x0, [sp, #16]
	str	wzr, [sp, #12]
.LBB30_1:                               // =>This Inner Loop Header: Depth=1
	ldr	w8, [sp, #12]
	ldr	x9, [sp, #16]
	ldr	x9, [x9, #8]
	ldrh	w9, [x9, #20]
	subs	w8, w8, w9
	b.ge	.LBB30_6
// %bb.2:                               //   in Loop: Header=BB30_1 Depth=1
	ldr	x0, [sp, #16]
	bl	fill_no_use_data_to_page
	str	w0, [sp, #8]
	ldr	w8, [sp, #8]
	cbnz	w8, .LBB30_4
// %bb.3:
	stur	wzr, [x29, #-4]
	b	.LBB30_7
.LBB30_4:                               //   in Loop: Header=BB30_1 Depth=1
// %bb.5:                               //   in Loop: Header=BB30_1 Depth=1
	ldr	w8, [sp, #12]
	add	w8, w8, #1                      // =1
	str	w8, [sp, #12]
	b	.LBB30_1
.LBB30_6:
	mov	w8, #1
	stur	w8, [x29, #-4]
.LBB30_7:
	ldur	w0, [x29, #-4]
	ldp	x29, x30, [sp, #32]             // 16-byte Folded Reload
	add	sp, sp, #48                     // =48
	ret
.Lfunc_end30:
	.size	fill_no_use_data_to_current_block, .Lfunc_end30-fill_no_use_data_to_current_block
	.cfi_endproc
                                        // -- End function
	.globl	do_static_wear_leveling         // -- Begin function do_static_wear_leveling
	.p2align	2
	.type	do_static_wear_leveling,@function
do_static_wear_leveling:                // @do_static_wear_leveling
	.cfi_startproc
// %bb.0:
	sub	sp, sp, #32                     // =32
	stp	x29, x30, [sp, #16]             // 16-byte Folded Spill
	add	x29, sp, #16                    // =16
	.cfi_def_cfa w29, 16
	.cfi_offset w30, -8
	.cfi_offset w29, -16
	str	x0, [sp]
	ldr	x8, [sp]
	ldr	x8, [x8, #3448]
	ldrh	w8, [x8, #6]
	cbnz	w8, .LBB31_2
// %bb.1:
	stur	wzr, [x29, #-4]
	b	.LBB31_7
.LBB31_2:
	ldr	x8, [sp]
	ldrh	w8, [x8, #684]
	cbnz	w8, .LBB31_4
// %bb.3:
	mov	w8, #1
	stur	w8, [x29, #-4]
	b	.LBB31_7
.LBB31_4:
	ldr	x0, [sp]
	bl	check_static_wear_leveling
	cbnz	w0, .LBB31_6
// %bb.5:
	ldr	x0, [sp]
	bl	done_static_wear_leveling
	stur	w0, [x29, #-4]
	b	.LBB31_7
.LBB31_6:
	stur	wzr, [x29, #-4]
.LBB31_7:
	ldur	w0, [x29, #-4]
	ldp	x29, x30, [sp, #16]             // 16-byte Folded Reload
	add	sp, sp, #32                     // =32
	ret
.Lfunc_end31:
	.size	do_static_wear_leveling, .Lfunc_end31-do_static_wear_leveling
	.cfi_endproc
                                        // -- End function
	.globl	prio_gc_one                     // -- Begin function prio_gc_one
	.p2align	2
	.type	prio_gc_one,@function
prio_gc_one:                            // @prio_gc_one
	.cfi_startproc
// %bb.0:
	sub	sp, sp, #48                     // =48
	stp	x29, x30, [sp, #32]             // 16-byte Folded Spill
	add	x29, sp, #32                    // =32
	.cfi_def_cfa w29, 16
	.cfi_offset w30, -8
	.cfi_offset w29, -16
	stur	x0, [x29, #-8]
	sturh	w1, [x29, #-10]
	str	w2, [sp, #16]
	ldur	x0, [x29, #-8]
	ldurh	w1, [x29, #-10]
	bl	get_phy_block_addr
	str	x0, [sp, #8]
	ldr	w8, [sp, #16]
	subs	w8, w8, #1                      // =1
	b.ne	.LBB32_2
// %bb.1:
	mov	w8, #1
	str	w8, [sp, #16]
	b	.LBB32_9
.LBB32_2:
	ldr	w8, [sp, #16]
	subs	w8, w8, #2                      // =2
	b.ne	.LBB32_4
// %bb.3:
	mov	w8, #2
	str	w8, [sp, #16]
	b	.LBB32_8
.LBB32_4:
	ldr	w8, [sp, #16]
	subs	w8, w8, #3                      // =3
	b.ne	.LBB32_6
// %bb.5:
	mov	w8, #3
	str	w8, [sp, #16]
	b	.LBB32_7
.LBB32_6:
	mov	w8, #3
	str	w8, [sp, #16]
.LBB32_7:
.LBB32_8:
.LBB32_9:
	ldur	x0, [x29, #-8]
	ldr	x1, [sp, #8]
	ldr	w2, [sp, #16]
	bl	add_prio_gc
	mov	w0, wzr
	ldp	x29, x30, [sp, #32]             // 16-byte Folded Reload
	add	sp, sp, #48                     // =48
	ret
.Lfunc_end32:
	.size	prio_gc_one, .Lfunc_end32-prio_gc_one
	.cfi_endproc
                                        // -- End function
	.globl	get_phy_block_addr              // -- Begin function get_phy_block_addr
	.p2align	2
	.type	get_phy_block_addr,@function
get_phy_block_addr:                     // @get_phy_block_addr
	.cfi_startproc
// %bb.0:
	sub	sp, sp, #16                     // =16
	.cfi_def_cfa_offset 16
	str	x0, [sp, #8]
	strh	w1, [sp, #6]
	ldr	x8, [sp, #8]
	ldr	x8, [x8, #8]
	ldr	x8, [x8, #32]
	ldrh	w9, [sp, #6]
                                        // kill: def $x9 killed $w9
	add	x0, x8, x9, lsl #6
	add	sp, sp, #16                     // =16
	ret
.Lfunc_end33:
	.size	get_phy_block_addr, .Lfunc_end33-get_phy_block_addr
	.cfi_endproc
                                        // -- End function
	.globl	gc_one                          // -- Begin function gc_one
	.p2align	2
	.type	gc_one,@function
gc_one:                                 // @gc_one
	.cfi_startproc
// %bb.0:
	sub	sp, sp, #80                     // =80
	stp	x29, x30, [sp, #64]             // 16-byte Folded Spill
	add	x29, sp, #64                    // =64
	.cfi_def_cfa w29, 16
	.cfi_offset w30, -8
	.cfi_offset w29, -16
	stur	x0, [x29, #-16]
	sturh	w1, [x29, #-18]
	ldur	x8, [x29, #-16]
	ldr	x8, [x8, #352]
	str	x8, [sp, #32]
	ldr	x8, [sp, #32]
	cbnz	x8, .LBB34_2
// %bb.1:
	mov	w8, #8
	stur	w8, [x29, #-4]
	b	.LBB34_9
.LBB34_2:
	ldr	x8, [sp, #32]
	ldrh	w8, [x8, #4]
	ldurh	w9, [x29, #-18]
	subs	w8, w8, w9
	b.le	.LBB34_8
// %bb.3:
	ldur	x0, [x29, #-16]
	mov	x1, xzr
	mov	w2, #-1
	bl	garbage_collect_first
	stur	w0, [x29, #-24]
	ldur	w8, [x29, #-24]
	subs	w8, w8, #8                      // =8
	b.ne	.LBB34_5
// %bb.4:
	mov	w8, #8
	stur	w8, [x29, #-4]
	b	.LBB34_9
.LBB34_5:
	ldur	w8, [x29, #-24]
	cbnz	w8, .LBB34_7
// %bb.6:
	adrp	x8, gc_src_type
	ldr	w8, [x8, :lo12:gc_src_type]
	str	w8, [sp, #8]                    // 4-byte Folded Spill
	ldur	x8, [x29, #-16]
	ldrh	w8, [x8, #30]
	str	w8, [sp, #12]                   // 4-byte Folded Spill
	ldur	x8, [x29, #-16]
	ldrh	w8, [x8, #680]
	str	w8, [sp, #16]                   // 4-byte Folded Spill
	ldur	x8, [x29, #-16]
	ldrh	w8, [x8, #682]
	str	w8, [sp, #20]                   // 4-byte Folded Spill
	bl	nand_get_cur_task_name
	str	x0, [sp, #24]                   // 8-byte Folded Spill
	bl	nand_get_cur_task_pid
	ldr	w1, [sp, #8]                    // 4-byte Folded Reload
	ldr	w2, [sp, #12]                   // 4-byte Folded Reload
	ldr	w3, [sp, #16]                   // 4-byte Folded Reload
	ldr	w4, [sp, #20]                   // 4-byte Folded Reload
	ldr	x5, [sp, #24]                   // 8-byte Folded Reload
	mov	w6, w0
	adrp	x0, .L.str.28
	add	x0, x0, :lo12:.L.str.28
	bl	nand_print_dbg
	stur	wzr, [x29, #-4]
	b	.LBB34_9
.LBB34_7:
	adrp	x0, .L.str.29
	add	x0, x0, :lo12:.L.str.29
	bl	nand_print
	mov	w8, #1
	stur	w8, [x29, #-4]
	b	.LBB34_9
.LBB34_8:
	mov	w8, #8
	stur	w8, [x29, #-4]
.LBB34_9:
	ldur	w0, [x29, #-4]
	ldp	x29, x30, [sp, #64]             // 16-byte Folded Reload
	add	sp, sp, #80                     // =80
	ret
.Lfunc_end34:
	.size	gc_one, .Lfunc_end34-gc_one
	.cfi_endproc
                                        // -- End function
	.globl	gc_all_cnt                      // -- Begin function gc_all_cnt
	.p2align	2
	.type	gc_all_cnt,@function
gc_all_cnt:                             // @gc_all_cnt
	.cfi_startproc
// %bb.0:
	sub	sp, sp, #48                     // =48
	stp	x29, x30, [sp, #32]             // 16-byte Folded Spill
	add	x29, sp, #32                    // =32
	.cfi_def_cfa w29, 16
	.cfi_offset w30, -8
	.cfi_offset w29, -16
	stur	x0, [x29, #-8]
	sturh	w1, [x29, #-10]
	str	w2, [sp, #16]
	adrp	x9, gc_src_type
	mov	w8, #255
	str	w8, [x9, :lo12:gc_src_type]
.LBB35_1:                               // =>This Inner Loop Header: Depth=1
	ldr	w8, [sp, #16]
	subs	w9, w8, #1                      // =1
	str	w9, [sp, #16]
	cbz	w8, .LBB35_5
// %bb.2:                               //   in Loop: Header=BB35_1 Depth=1
	ldur	x0, [x29, #-8]
	ldurh	w1, [x29, #-10]
	bl	gc_one
	str	w0, [sp, #12]
	ldr	w8, [sp, #12]
	subs	w8, w8, #8                      // =8
	b.ne	.LBB35_4
// %bb.3:
	b	.LBB35_5
.LBB35_4:                               //   in Loop: Header=BB35_1 Depth=1
	b	.LBB35_1
.LBB35_5:
	mov	w0, wzr
	ldp	x29, x30, [sp, #32]             // 16-byte Folded Reload
	add	sp, sp, #48                     // =48
	ret
.Lfunc_end35:
	.size	gc_all_cnt, .Lfunc_end35-gc_all_cnt
	.cfi_endproc
                                        // -- End function
	.globl	gc_all                          // -- Begin function gc_all
	.p2align	2
	.type	gc_all,@function
gc_all:                                 // @gc_all
	.cfi_startproc
// %bb.0:
	sub	sp, sp, #32                     // =32
	stp	x29, x30, [sp, #16]             // 16-byte Folded Spill
	add	x29, sp, #16                    // =16
	.cfi_def_cfa w29, 16
	.cfi_offset w30, -8
	.cfi_offset w29, -16
	str	x0, [sp, #8]
	strh	w1, [sp, #6]
	adrp	x9, gc_src_type
	mov	w8, #255
	str	w8, [x9, :lo12:gc_src_type]
.LBB36_1:                               // =>This Inner Loop Header: Depth=1
	ldr	x0, [sp, #8]
	ldrh	w1, [sp, #6]
	bl	gc_one
	str	w0, [sp]
	ldr	w8, [sp]
	cbz	w8, .LBB36_3
// %bb.2:
	b	.LBB36_4
.LBB36_3:                               //   in Loop: Header=BB36_1 Depth=1
	b	.LBB36_1
.LBB36_4:
	mov	w0, wzr
	ldp	x29, x30, [sp, #16]             // 16-byte Folded Reload
	add	sp, sp, #32                     // =32
	ret
.Lfunc_end36:
	.size	gc_all, .Lfunc_end36-gc_all
	.cfi_endproc
                                        // -- End function
	.globl	gc_all_enhance                  // -- Begin function gc_all_enhance
	.p2align	2
	.type	gc_all_enhance,@function
gc_all_enhance:                         // @gc_all_enhance
	.cfi_startproc
// %bb.0:
	sub	sp, sp, #64                     // =64
	stp	x29, x30, [sp, #48]             // 16-byte Folded Spill
	add	x29, sp, #48                    // =48
	.cfi_def_cfa w29, 16
	.cfi_offset w30, -8
	.cfi_offset w29, -16
	stur	x0, [x29, #-16]
	adrp	x8, phyinfo
	add	x8, x8, :lo12:phyinfo
	str	x8, [sp, #8]
	ldur	x8, [x29, #-16]
	ldrh	w8, [x8, #30]
	str	w8, [sp, #20]
	ldr	w8, [sp, #20]
	ldur	x9, [x29, #-16]
	ldrh	w9, [x9, #680]
	subs	w8, w8, w9
	b.hs	.LBB37_2
// %bb.1:
	stur	wzr, [x29, #-4]
	b	.LBB37_7
.LBB37_2:
	ldr	w8, [sp, #20]
	ldur	x9, [x29, #-16]
	ldrh	w9, [x9, #682]
	mov	w10, #3
	mul	w9, w9, w10
	subs	w8, w8, w9
	b.ls	.LBB37_4
// %bb.3:
	stur	wzr, [x29, #-4]
	b	.LBB37_7
.LBB37_4:
	ldr	x8, [sp, #8]
	ldr	w8, [x8, #4]
	ldr	x9, [sp, #8]
	ldrh	w9, [x9, #8]
	mul	w8, w8, w9
                                        // kill: def $x8 killed $w8
	str	x8, [sp, #24]
	ldr	x8, [sp, #8]
	ldrb	w8, [x8, #10]
	mov	w9, w8
	ldr	x8, [sp, #24]
	mul	x8, x8, x9
	str	x8, [sp, #24]
	ldr	x8, [sp, #24]
	mov	x9, #2048
	udiv	x8, x8, x9
	str	x8, [sp, #24]
	ldr	x8, [sp, #24]
	subs	x8, x8, #128                    // =128
	b.ls	.LBB37_6
// %bb.5:
	stur	wzr, [x29, #-4]
	b	.LBB37_7
.LBB37_6:
	ldur	x0, [x29, #-16]
	ldur	x8, [x29, #-16]
	ldr	x8, [x8, #8]
	ldrh	w8, [x8, #20]
	mov	w9, #2
	sdiv	w1, w8, w9
	bl	gc_all
	stur	w0, [x29, #-4]
.LBB37_7:
	ldur	w0, [x29, #-4]
	ldp	x29, x30, [sp, #48]             // 16-byte Folded Reload
	add	sp, sp, #64                     // =64
	ret
.Lfunc_end37:
	.size	gc_all_enhance, .Lfunc_end37-gc_all_enhance
	.cfi_endproc
                                        // -- End function
	.globl	gc_all_base_on_free_blks        // -- Begin function gc_all_base_on_free_blks
	.p2align	2
	.type	gc_all_base_on_free_blks,@function
gc_all_base_on_free_blks:               // @gc_all_base_on_free_blks
	.cfi_startproc
// %bb.0:
	sub	sp, sp, #64                     // =64
	stp	x29, x30, [sp, #48]             // 16-byte Folded Spill
	add	x29, sp, #48                    // =48
	.cfi_def_cfa w29, 16
	.cfi_offset w30, -8
	.cfi_offset w29, -16
	stur	x0, [x29, #-16]
	adrp	x8, phyinfo
	add	x8, x8, :lo12:phyinfo
	str	x8, [sp, #8]
	ldur	x8, [x29, #-16]
	ldr	x8, [x8, #8]
	str	x8, [sp]
	ldur	x8, [x29, #-16]
	ldrh	w8, [x8, #30]
	str	w8, [sp, #20]
	ldr	w8, [sp, #20]
	ldur	x9, [x29, #-16]
	ldrh	w9, [x9, #680]
	subs	w8, w8, w9
	b.hs	.LBB38_2
// %bb.1:
	stur	wzr, [x29, #-4]
	b	.LBB38_7
.LBB38_2:
	ldr	w8, [sp, #20]
	ldur	x9, [x29, #-16]
	ldrh	w9, [x9, #682]
	mov	w10, #3
	mul	w9, w9, w10
	subs	w8, w8, w9
	b.ls	.LBB38_4
// %bb.3:
	stur	wzr, [x29, #-4]
	b	.LBB38_7
.LBB38_4:
	ldr	x8, [sp, #8]
	ldr	w8, [x8, #4]
	ldr	x9, [sp, #8]
	ldrh	w9, [x9, #8]
	mul	w8, w8, w9
                                        // kill: def $x8 killed $w8
	str	x8, [sp, #24]
	ldr	x8, [sp, #8]
	ldrb	w8, [x8, #10]
	mov	w9, w8
	ldr	x8, [sp, #24]
	mul	x8, x8, x9
	str	x8, [sp, #24]
	ldr	x8, [sp, #24]
	mov	x9, #2048
	udiv	x8, x8, x9
	str	x8, [sp, #24]
	ldr	x8, [sp, #24]
	subs	x8, x8, #128                    // =128
	b.ls	.LBB38_6
// %bb.5:
	stur	wzr, [x29, #-4]
	b	.LBB38_7
.LBB38_6:
	ldr	x8, [sp]
	ldrh	w8, [x8, #20]
	mov	w9, #2
	sdiv	w8, w8, w9
	mov	w2, #3
	subs	w8, w8, #3                      // =3
	str	w8, [sp, #16]
	ldr	w8, [sp, #20]
	ldur	x10, [x29, #-16]
	ldrh	w10, [x10, #680]
	subs	w10, w8, w10
	ldr	w8, [sp, #16]
	mul	w8, w8, w10
	str	w8, [sp, #16]
	ldur	x8, [x29, #-16]
	ldrh	w8, [x8, #682]
	mul	w8, w2, w8
	ldur	x10, [x29, #-16]
	ldrh	w10, [x10, #680]
	subs	w10, w8, w10
	ldr	w8, [sp, #16]
	udiv	w8, w8, w10
	str	w8, [sp, #16]
	ldr	x8, [sp]
	ldrh	w8, [x8, #20]
	sdiv	w9, w8, w9
	ldr	w8, [sp, #16]
	add	w8, w8, w9
	str	w8, [sp, #16]
	ldur	x0, [x29, #-16]
	ldr	w1, [sp, #16]
	bl	gc_all_cnt
	stur	w0, [x29, #-4]
.LBB38_7:
	ldur	w0, [x29, #-4]
	ldp	x29, x30, [sp, #48]             // 16-byte Folded Reload
	add	sp, sp, #64                     // =64
	ret
.Lfunc_end38:
	.size	gc_all_base_on_free_blks, .Lfunc_end38-gc_all_base_on_free_blks
	.cfi_endproc
                                        // -- End function
	.globl	get_total_invalid_page          // -- Begin function get_total_invalid_page
	.p2align	2
	.type	get_total_invalid_page,@function
get_total_invalid_page:                 // @get_total_invalid_page
	.cfi_startproc
// %bb.0:
	sub	sp, sp, #32                     // =32
	.cfi_def_cfa_offset 32
	str	x0, [sp, #24]
	str	wzr, [sp, #12]
	ldr	x8, [sp, #24]
	add	x8, x8, #336                    // =336
	str	x8, [sp, #16]
.LBB39_1:                               // =>This Inner Loop Header: Depth=1
	ldr	x8, [sp, #16]
	ldr	x8, [x8, #16]
	cbz	x8, .LBB39_4
// %bb.2:                               //   in Loop: Header=BB39_1 Depth=1
	ldr	x8, [sp, #16]
	ldr	x8, [x8, #16]
	ldrh	w9, [x8, #4]
	ldr	w8, [sp, #12]
	add	w8, w8, w9
	str	w8, [sp, #12]
// %bb.3:                               //   in Loop: Header=BB39_1 Depth=1
	ldr	x8, [sp, #16]
	ldr	x8, [x8, #16]
	str	x8, [sp, #16]
	b	.LBB39_1
.LBB39_4:
	ldr	w0, [sp, #12]
	add	sp, sp, #32                     // =32
	ret
.Lfunc_end39:
	.size	get_total_invalid_page, .Lfunc_end39-get_total_invalid_page
	.cfi_endproc
                                        // -- End function
	.globl	static_wear_leveling            // -- Begin function static_wear_leveling
	.p2align	2
	.type	static_wear_leveling,@function
static_wear_leveling:                   // @static_wear_leveling
	.cfi_startproc
// %bb.0:
	sub	sp, sp, #48                     // =48
	stp	x29, x30, [sp, #32]             // 16-byte Folded Spill
	add	x29, sp, #32                    // =32
	.cfi_def_cfa w29, 16
	.cfi_offset w30, -8
	.cfi_offset w29, -16
	str	x0, [sp, #16]
	ldr	x8, [sp, #16]
	ldrh	w8, [x8, #30]
	ldr	x9, [sp, #16]
	ldrh	w9, [x9, #680]
	subs	w8, w8, w9
	b.gt	.LBB40_2
// %bb.1:
	stur	wzr, [x29, #-4]
	b	.LBB40_9
.LBB40_2:
	ldr	x8, [sp, #16]
	ldr	w8, [x8, #668]
	subs	w8, w8, #20                     // =20
	b.lo	.LBB40_8
// %bb.3:
	ldr	x8, [sp, #16]
	ldr	x9, [x8, #3440]
	ldr	w8, [x9, #180]
	add	w8, w8, #1                      // =1
	str	w8, [x9, #180]
	ldr	x0, [sp, #16]
	bl	get_block_min_count_from_invalid_list
	str	x0, [sp]
	ldr	x0, [sp, #16]
	ldr	x1, [sp]
	mov	w2, #5
	bl	add_prio_gc
	str	w0, [sp, #12]
	ldr	w8, [sp, #12]
	cbnz	w8, .LBB40_5
// %bb.4:
	ldr	x9, [sp, #16]
	ldr	w8, [x9, #672]
	add	w8, w8, #4                      // =4
	str	w8, [x9, #672]
.LBB40_5:
	ldr	x8, [sp, #16]
	ldr	w8, [x8, #672]
	ldr	x9, [sp, #16]
	ldr	x9, [x9, #8]
	ldrh	w9, [x9, #20]
	subs	w8, w8, w9
	b.lo	.LBB40_7
// %bb.6:
	ldr	x8, [sp, #16]
	str	wzr, [x8, #668]
	ldr	x8, [sp, #16]
	str	wzr, [x8, #672]
.LBB40_7:
.LBB40_8:
	stur	wzr, [x29, #-4]
.LBB40_9:
	ldur	w0, [x29, #-4]
	ldp	x29, x30, [sp, #32]             // 16-byte Folded Reload
	add	sp, sp, #48                     // =48
	ret
.Lfunc_end40:
	.size	static_wear_leveling, .Lfunc_end40-static_wear_leveling
	.cfi_endproc
                                        // -- End function
	.globl	get_block_min_count_from_invalid_list // -- Begin function get_block_min_count_from_invalid_list
	.p2align	2
	.type	get_block_min_count_from_invalid_list,@function
get_block_min_count_from_invalid_list:  // @get_block_min_count_from_invalid_list
	.cfi_startproc
// %bb.0:
	sub	sp, sp, #48                     // =48
	.cfi_def_cfa_offset 48
	str	x0, [sp, #32]
	str	xzr, [sp, #24]
	mov	w8, #-1
	str	w8, [sp, #20]
	ldr	x8, [sp, #32]
	add	x8, x8, #336                    // =336
	str	x8, [sp, #8]
	ldr	x8, [sp, #8]
	ldr	x8, [x8, #16]
	str	x8, [sp, #8]
.LBB41_1:                               // =>This Inner Loop Header: Depth=1
	ldr	x8, [sp, #8]
	cbz	x8, .LBB41_6
// %bb.2:                               //   in Loop: Header=BB41_1 Depth=1
	ldr	x8, [sp, #8]
	ldr	w8, [x8, #8]
	ldr	w9, [sp, #20]
	subs	w8, w8, w9
	b.hi	.LBB41_4
// %bb.3:                               //   in Loop: Header=BB41_1 Depth=1
	ldr	x8, [sp, #8]
	ldr	w8, [x8, #8]
	str	w8, [sp, #20]
	ldr	x8, [sp, #8]
	str	x8, [sp, #24]
.LBB41_4:                               //   in Loop: Header=BB41_1 Depth=1
// %bb.5:                               //   in Loop: Header=BB41_1 Depth=1
	ldr	x8, [sp, #8]
	ldr	x8, [x8, #16]
	str	x8, [sp, #8]
	b	.LBB41_1
.LBB41_6:
	ldr	x8, [sp, #24]
	cbz	x8, .LBB41_8
// %bb.7:
	ldr	x8, [sp, #24]
	str	x8, [sp, #40]
	b	.LBB41_9
.LBB41_8:
	str	xzr, [sp, #40]
.LBB41_9:
	ldr	x0, [sp, #40]
	add	sp, sp, #48                     // =48
	ret
.Lfunc_end41:
	.size	get_block_min_count_from_invalid_list, .Lfunc_end41-get_block_min_count_from_invalid_list
	.cfi_endproc
                                        // -- End function
	.globl	power_on_gc                     // -- Begin function power_on_gc
	.p2align	2
	.type	power_on_gc,@function
power_on_gc:                            // @power_on_gc
	.cfi_startproc
// %bb.0:
	sub	sp, sp, #48                     // =48
	stp	x29, x30, [sp, #32]             // 16-byte Folded Spill
	add	x29, sp, #32                    // =32
	.cfi_def_cfa w29, 16
	.cfi_offset w30, -8
	.cfi_offset w29, -16
	str	x0, [sp, #16]
	ldr	x8, [sp, #16]
	ldrh	w8, [x8, #30]
	ldr	x9, [sp, #16]
	ldrh	w9, [x9, #680]
	subs	w8, w8, w9
	b.lt	.LBB42_2
// %bb.1:
	ldr	x8, [sp, #16]
	ldrh	w1, [x8, #30]
	ldr	x8, [sp, #16]
	ldrh	w2, [x8, #680]
	ldr	x8, [sp, #16]
	ldrh	w3, [x8, #682]
	ldr	x8, [sp, #16]
	ldrh	w4, [x8, #26]
	ldr	x8, [sp, #16]
	ldr	w8, [x8, #32]
	ldr	x9, [sp, #16]
	ldr	x9, [x9, #8]
	ldrb	w9, [x9, #8]
	udiv	w8, w8, w9
	ldr	x9, [sp, #16]
	ldr	x9, [x9, #8]
	ldrh	w9, [x9, #20]
	udiv	w5, w8, w9
	ldr	x8, [sp, #16]
	ldr	w8, [x8, #40]
	ldr	x9, [sp, #16]
	ldr	x9, [x9, #8]
	ldrb	w9, [x9, #8]
	udiv	w8, w8, w9
	ldr	x9, [sp, #16]
	ldr	x9, [x9, #8]
	ldrh	w9, [x9, #20]
	udiv	w6, w8, w9
	adrp	x0, .L.str.31
	add	x0, x0, :lo12:.L.str.31
	bl	nand_print_dbg
	stur	wzr, [x29, #-4]
	b	.LBB42_13
.LBB42_2:
	adrp	x9, gc_src_type
	mov	w8, #2
	str	w8, [x9, :lo12:gc_src_type]
	strh	wzr, [sp, #8]
	ldr	x8, [sp, #16]
	ldr	x8, [x8, #8]
	ldrh	w8, [x8, #20]
	subs	w8, w8, #10                     // =10
	strh	w8, [sp, #10]
.LBB42_3:                               // =>This Inner Loop Header: Depth=1
	ldr	x8, [sp, #16]
	ldrh	w8, [x8, #30]
	ldr	x9, [sp, #16]
	ldrh	w9, [x9, #680]
	subs	w8, w8, w9
	b.ge	.LBB42_7
// %bb.4:                               //   in Loop: Header=BB42_3 Depth=1
	ldr	x0, [sp, #16]
	ldrh	w1, [sp, #10]
	bl	gc_one
	str	w0, [sp, #12]
	ldr	w8, [sp, #12]
	subs	w8, w8, #8                      // =8
	b.ne	.LBB42_6
// %bb.5:
	b	.LBB42_7
.LBB42_6:                               //   in Loop: Header=BB42_3 Depth=1
	ldrh	w8, [sp, #8]
	add	w8, w8, #1                      // =1
	strh	w8, [sp, #8]
	b	.LBB42_3
.LBB42_7:
	ldr	x8, [sp, #16]
	ldr	x8, [x8, #8]
	ldrh	w8, [x8, #20]
	asr	w8, w8, #3
	strh	w8, [sp, #10]
.LBB42_8:                               // =>This Inner Loop Header: Depth=1
	ldr	x8, [sp, #16]
	ldrh	w8, [x8, #30]
	subs	w8, w8, #5                      // =5
	b.ge	.LBB42_12
// %bb.9:                               //   in Loop: Header=BB42_8 Depth=1
	ldr	x8, [sp, #16]
	ldrh	w1, [x8, #30]
	adrp	x0, .L.str.32
	add	x0, x0, :lo12:.L.str.32
	bl	nand_print_dbg
	ldr	x0, [sp, #16]
	ldrh	w1, [sp, #10]
	bl	gc_one
	str	w0, [sp, #12]
	ldr	w8, [sp, #12]
	subs	w8, w8, #8                      // =8
	b.ne	.LBB42_11
// %bb.10:
	b	.LBB42_12
.LBB42_11:                              //   in Loop: Header=BB42_8 Depth=1
	ldrh	w8, [sp, #8]
	add	w8, w8, #1                      // =1
	strh	w8, [sp, #8]
	b	.LBB42_8
.LBB42_12:
	ldrh	w1, [sp, #8]
	adrp	x0, .L.str.33
	add	x0, x0, :lo12:.L.str.33
	bl	nand_print_dbg
	stur	wzr, [x29, #-4]
.LBB42_13:
	ldur	w0, [x29, #-4]
	ldp	x29, x30, [sp, #32]             // 16-byte Folded Reload
	add	sp, sp, #48                     // =48
	ret
.Lfunc_end42:
	.size	power_on_gc, .Lfunc_end42-power_on_gc
	.cfi_endproc
                                        // -- End function
	.globl	all_time_gc                     // -- Begin function all_time_gc
	.p2align	2
	.type	all_time_gc,@function
all_time_gc:                            // @all_time_gc
	.cfi_startproc
// %bb.0:
	sub	sp, sp, #32                     // =32
	stp	x29, x30, [sp, #16]             // 16-byte Folded Spill
	add	x29, sp, #16                    // =16
	.cfi_def_cfa w29, 16
	.cfi_offset w30, -8
	.cfi_offset w29, -16
	str	x0, [sp, #8]
	ldr	x8, [sp, #8]
	ldr	x8, [x8, #8]
	ldrh	w8, [x8, #20]
	subs	w8, w8, #3                      // =3
	strh	w8, [sp, #6]
	ldr	x8, [sp, #8]
	ldrh	w8, [x8, #30]
	ldr	x9, [sp, #8]
	ldrh	w9, [x9, #682]
	subs	w8, w8, w9
	b.ge	.LBB43_4
// %bb.1:
	ldr	x8, [sp, #8]
	ldrh	w8, [x8, #684]
	cbz	w8, .LBB43_3
// %bb.2:
	adrp	x9, gc_src_type
	mov	w8, #1
	str	w8, [x9, :lo12:gc_src_type]
	ldr	x0, [sp, #8]
	ldrh	w1, [sp, #6]
	bl	gc_one
.LBB43_3:
.LBB43_4:
	mov	w0, wzr
	ldp	x29, x30, [sp, #16]             // 16-byte Folded Reload
	add	sp, sp, #32                     // =32
	ret
.Lfunc_end43:
	.size	all_time_gc, .Lfunc_end43-all_time_gc
	.cfi_endproc
                                        // -- End function
	.globl	shutdown_on_gc                  // -- Begin function shutdown_on_gc
	.p2align	2
	.type	shutdown_on_gc,@function
shutdown_on_gc:                         // @shutdown_on_gc
	.cfi_startproc
// %bb.0:
	sub	sp, sp, #32                     // =32
	stp	x29, x30, [sp, #16]             // 16-byte Folded Spill
	add	x29, sp, #16                    // =16
	.cfi_def_cfa w29, 16
	.cfi_offset w30, -8
	.cfi_offset w29, -16
	str	x0, [sp, #8]
	ldr	x8, [sp, #8]
	ldr	x8, [x8, #352]
	str	x8, [sp]
	adrp	x9, gc_src_type
	mov	w8, #4
	str	w8, [x9, :lo12:gc_src_type]
	ldr	x2, [sp]
	ldr	x8, [sp, #8]
	ldrh	w3, [x8, #684]
	ldr	x8, [sp, #8]
	ldrh	w4, [x8, #30]
	ldr	x8, [sp, #8]
	ldrh	w5, [x8, #680]
	ldr	x8, [sp, #8]
	ldrh	w6, [x8, #682]
	adrp	x0, .L.str.34
	add	x0, x0, :lo12:.L.str.34
	adrp	x1, .L__func__.shutdown_on_gc
	add	x1, x1, :lo12:.L__func__.shutdown_on_gc
	bl	nand_print_dbg
.LBB44_1:                               // =>This Inner Loop Header: Depth=1
	ldr	x8, [sp, #8]
	ldrh	w8, [x8, #30]
	ldr	x9, [sp, #8]
	ldrh	w9, [x9, #682]
	subs	w8, w8, w9
	b.gt	.LBB44_7
// %bb.2:                               //   in Loop: Header=BB44_1 Depth=1
	ldr	x8, [sp, #8]
	ldr	x8, [x8, #352]
	str	x8, [sp]
	ldr	x8, [sp]
	cbnz	x8, .LBB44_4
// %bb.3:
	ldr	x8, [sp, #8]
	ldrh	w1, [x8, #30]
	ldr	x8, [sp, #8]
	ldrh	w2, [x8, #680]
	ldr	x8, [sp, #8]
	ldrh	w3, [x8, #682]
	adrp	x0, .L.str.35
	add	x0, x0, :lo12:.L.str.35
	bl	nand_print
	b	.LBB44_7
.LBB44_4:                               //   in Loop: Header=BB44_1 Depth=1
	ldr	x8, [sp, #8]
	ldrh	w8, [x8, #684]
	cbz	w8, .LBB44_6
// %bb.5:                               //   in Loop: Header=BB44_1 Depth=1
	ldr	x0, [sp, #8]
	mov	w1, wzr
	bl	gc_one
	ldr	x8, [sp, #8]
	ldrh	w1, [x8, #30]
	ldr	x8, [sp, #8]
	ldrh	w2, [x8, #680]
	ldr	x8, [sp, #8]
	ldrh	w3, [x8, #682]
	adrp	x0, .L.str.36
	add	x0, x0, :lo12:.L.str.36
	bl	nand_print_dbg
.LBB44_6:                               //   in Loop: Header=BB44_1 Depth=1
	b	.LBB44_1
.LBB44_7:
	mov	w0, wzr
	ldp	x29, x30, [sp, #16]             // 16-byte Folded Reload
	add	sp, sp, #32                     // =32
	ret
.Lfunc_end44:
	.size	shutdown_on_gc, .Lfunc_end44-shutdown_on_gc
	.cfi_endproc
                                        // -- End function
	.globl	nftl_get_gc_info                // -- Begin function nftl_get_gc_info
	.p2align	2
	.type	nftl_get_gc_info,@function
nftl_get_gc_info:                       // @nftl_get_gc_info
	.cfi_startproc
// %bb.0:
	sub	sp, sp, #112                    // =112
	stp	x29, x30, [sp, #96]             // 16-byte Folded Spill
	add	x29, sp, #96                    // =96
	.cfi_def_cfa w29, 16
	.cfi_offset w30, -8
	.cfi_offset w29, -16
	stur	x0, [x29, #-8]
	stur	x1, [x29, #-16]
	stur	w2, [x29, #-20]
	stur	wzr, [x29, #-24]
	ldur	x8, [x29, #-8]
	ldr	x8, [x8, #8]
	str	x8, [sp, #40]
	stur	wzr, [x29, #-40]
	stur	wzr, [x29, #-36]
	stur	wzr, [x29, #-28]
	stur	wzr, [x29, #-32]
	ldur	x8, [x29, #-8]
	ldr	x8, [x8, #352]
	str	x8, [sp, #48]
.LBB45_1:                               // =>This Inner Loop Header: Depth=1
	ldr	x8, [sp, #48]
	cbz	x8, .LBB45_5
// %bb.2:                               //   in Loop: Header=BB45_1 Depth=1
	ldr	x8, [sp, #48]
	ldrh	w8, [x8, #4]
	ldr	x9, [sp, #40]
	ldrh	w9, [x9, #20]
	mov	w10, #2
	sdiv	w9, w9, w10
	subs	w8, w8, w9
	b.le	.LBB45_4
// %bb.3:                               //   in Loop: Header=BB45_1 Depth=1
	ldr	x8, [sp, #48]
	ldrh	w9, [x8, #4]
	ldur	w8, [x29, #-36]
	add	w8, w8, w9
	stur	w8, [x29, #-36]
	ldur	w8, [x29, #-28]
	add	w8, w8, #1                      // =1
	stur	w8, [x29, #-28]
.LBB45_4:                               //   in Loop: Header=BB45_1 Depth=1
	ldur	w8, [x29, #-32]
	add	w8, w8, #1                      // =1
	stur	w8, [x29, #-32]
	ldr	x8, [sp, #48]
	ldrh	w9, [x8, #4]
	ldur	w8, [x29, #-40]
	add	w8, w8, w9
	stur	w8, [x29, #-40]
	ldr	x8, [sp, #48]
	ldr	x8, [x8, #16]
	str	x8, [sp, #48]
	b	.LBB45_1
.LBB45_5:
	ldur	x8, [x29, #-16]
	ldursw	x9, [x29, #-24]
	add	x0, x8, x9
	ldur	w8, [x29, #-20]
	ldur	w9, [x29, #-24]
	subs	w1, w8, w9
	ldur	x8, [x29, #-8]
	ldrh	w3, [x8, #30]
	ldur	x8, [x29, #-8]
	ldrh	w4, [x8, #680]
	ldur	x8, [x29, #-8]
	ldrh	w5, [x8, #682]
	ldur	x8, [x29, #-8]
	ldr	x8, [x8, #3440]
	ldr	w6, [x8, #120]
	ldur	x8, [x29, #-8]
	ldr	x8, [x8, #3440]
	ldr	w7, [x8, #124]
	ldur	w12, [x29, #-28]
	ldur	w11, [x29, #-32]
	ldur	w10, [x29, #-36]
	ldur	w8, [x29, #-40]
	adrp	x2, .L.str.37
	add	x2, x2, :lo12:.L.str.37
	mov	x9, sp
	str	w12, [x9]
	str	w11, [x9, #8]
	str	w10, [x9, #16]
	str	w8, [x9, #24]
	bl	nand_snprint
	stur	w0, [x29, #-24]
	stur	wzr, [x29, #-28]
	ldur	x8, [x29, #-8]
	ldr	x8, [x8, #352]
	str	x8, [sp, #48]
.LBB45_6:                               // =>This Inner Loop Header: Depth=1
	ldur	w8, [x29, #-20]
	ldur	w9, [x29, #-24]
	subs	w8, w8, w9
	subs	w8, w8, #1                      // =1
	cbz	w8, .LBB45_13
// %bb.7:                               //   in Loop: Header=BB45_6 Depth=1
	ldr	x8, [sp, #48]
	cbz	x8, .LBB45_9
// %bb.8:                               //   in Loop: Header=BB45_6 Depth=1
	ldr	x8, [sp, #48]
	ldrh	w8, [x8, #4]
	cbnz	w8, .LBB45_10
.LBB45_9:
	b	.LBB45_13
.LBB45_10:                              //   in Loop: Header=BB45_6 Depth=1
	ldur	x8, [x29, #-16]
	ldursw	x9, [x29, #-24]
	add	x0, x8, x9
	ldur	w8, [x29, #-20]
	ldur	w9, [x29, #-24]
	subs	w1, w8, w9
	ldr	x8, [sp, #48]
	ldrh	w3, [x8]
	ldr	x8, [sp, #48]
	ldrh	w4, [x8, #4]
	adrp	x2, .L.str.38
	add	x2, x2, :lo12:.L.str.38
	bl	nand_snprint
	ldur	w8, [x29, #-24]
	add	w8, w8, w0
	stur	w8, [x29, #-24]
	ldur	w8, [x29, #-28]
	add	w8, w8, #1                      // =1
	stur	w8, [x29, #-28]
	ldur	w8, [x29, #-28]
	mov	w10, #8
	sdiv	w9, w8, w10
	mul	w9, w9, w10
	subs	w8, w8, w9
	cbnz	w8, .LBB45_12
// %bb.11:                              //   in Loop: Header=BB45_6 Depth=1
	ldur	x8, [x29, #-16]
	ldur	w9, [x29, #-24]
	subs	w9, w9, #1                      // =1
	add	x9, x8, w9, sxtw
	mov	w8, #10
	strb	w8, [x9]
.LBB45_12:                              //   in Loop: Header=BB45_6 Depth=1
	ldr	x8, [sp, #48]
	ldr	x8, [x8, #16]
	str	x8, [sp, #48]
	b	.LBB45_6
.LBB45_13:
	ldur	x8, [x29, #-16]
	ldur	w9, [x29, #-24]
	subs	w9, w9, #1                      // =1
	add	x9, x8, w9, sxtw
	mov	w8, #10
	strb	w8, [x9]
	ldur	w0, [x29, #-24]
	ldp	x29, x30, [sp, #96]             // 16-byte Folded Reload
	add	sp, sp, #112                    // =112
	ret
.Lfunc_end45:
	.size	nftl_get_gc_info, .Lfunc_end45-nftl_get_gc_info
	.cfi_endproc
                                        // -- End function
	.globl	_nftl_nand_copy_page            // -- Begin function _nftl_nand_copy_page
	.p2align	2
	.type	_nftl_nand_copy_page,@function
_nftl_nand_copy_page:                   // @_nftl_nand_copy_page
	.cfi_startproc
// %bb.0:
	sub	sp, sp, #176                    // =176
	stp	x29, x30, [sp, #160]            // 16-byte Folded Spill
	add	x29, sp, #160                   // =160
	.cfi_def_cfa w29, 16
	.cfi_offset w30, -8
	.cfi_offset w29, -16
	stur	x0, [x29, #-8]
	stur	x1, [x29, #-16]
	stur	x2, [x29, #-24]
	stur	x3, [x29, #-32]
	sturh	w4, [x29, #-34]
	ldur	x8, [x29, #-16]
	ldrh	w1, [x8]
	ldurh	w2, [x29, #-34]
	add	x0, sp, #64                     // =64
	str	x0, [sp, #32]                   // 8-byte Folded Spill
	mov	w3, wzr
	str	w3, [sp, #20]                   // 4-byte Folded Spill
	mov	x5, xzr
	str	x5, [sp, #24]                   // 8-byte Folded Spill
	mov	x4, x5
	bl	set_physic_op_par
	ldr	w3, [sp, #20]                   // 4-byte Folded Reload
	ldr	x5, [sp, #24]                   // 8-byte Folded Reload
	ldur	x8, [x29, #-24]
	ldrh	w1, [x8]
	ldurh	w2, [x29, #-34]
	add	x0, sp, #40                     // =40
	mov	x4, x5
	bl	set_physic_op_par
	ldr	x1, [sp, #32]                   // 8-byte Folded Reload
	stur	wzr, [x29, #-40]
	ldur	x8, [x29, #-8]
	ldr	x8, [x8, #8]
	ldrh	w8, [x8, #28]
	strh	w8, [sp, #68]
	ldur	x8, [x29, #-8]
	ldr	x8, [x8, #8]
	ldrh	w8, [x8, #28]
	strh	w8, [sp, #44]
	ldur	x8, [x29, #-32]
	str	x8, [sp, #72]
	ldur	x8, [x29, #-32]
	str	x8, [sp, #48]
	sub	x8, x29, #64                    // =64
	str	x8, [sp, #80]
	str	x8, [sp, #56]
	ldur	x8, [x29, #-8]
	ldr	x8, [x8, #3472]
	ldur	x0, [x29, #-8]
	blr	x8
	stur	w0, [x29, #-44]
	ldur	w8, [x29, #-44]
	subs	w8, w8, #10                     // =10
	b.ne	.LBB46_2
// %bb.1:
	stur	wzr, [x29, #-44]
.LBB46_2:
	sub	x0, x29, #64                    // =64
	str	x0, [sp, #8]                    // 8-byte Folded Spill
	bl	get_special_data_from_oob
	ldr	x1, [sp, #8]                    // 8-byte Folded Reload
	stur	w0, [x29, #-68]
	ldur	x0, [x29, #-8]
	ldur	w2, [x29, #-68]
	ldur	x8, [x29, #-16]
	ldr	w3, [x8, #8]
	ldur	x8, [x29, #-24]
	ldrh	w8, [x8, #6]
	add	w4, w8, #1                      // =1
	bl	set_oob_special_page
	ldur	x8, [x29, #-8]
	ldr	x8, [x8, #3480]
	ldur	x0, [x29, #-8]
	add	x1, sp, #40                     // =40
	blr	x8
	stur	w0, [x29, #-48]
	ldur	w8, [x29, #-44]
	ldur	w9, [x29, #-48]
	orr	w8, w8, w9, lsl #8
	stur	w8, [x29, #-40]
	ldur	w0, [x29, #-40]
	ldp	x29, x30, [sp, #160]            // 16-byte Folded Reload
	add	sp, sp, #176                    // =176
	ret
.Lfunc_end46:
	.size	_nftl_nand_copy_page, .Lfunc_end46-_nftl_nand_copy_page
	.cfi_endproc
                                        // -- End function
	.globl	get_special_data_from_oob       // -- Begin function get_special_data_from_oob
	.p2align	2
	.type	get_special_data_from_oob,@function
get_special_data_from_oob:              // @get_special_data_from_oob
	.cfi_startproc
// %bb.0:
	sub	sp, sp, #32                     // =32
	stp	x29, x30, [sp, #16]             // 16-byte Folded Spill
	add	x29, sp, #16                    // =16
	.cfi_def_cfa w29, 16
	.cfi_offset w30, -8
	.cfi_offset w29, -16
	str	x0, [sp, #8]
	ldr	x0, [sp, #8]
	mov	w1, #1
	mov	w2, #4
	bl	get_spare_data
	str	w0, [sp, #4]
	ldr	w0, [sp, #4]
	ldp	x29, x30, [sp, #16]             // 16-byte Folded Reload
	add	sp, sp, #32                     // =32
	ret
.Lfunc_end47:
	.size	get_special_data_from_oob, .Lfunc_end47-get_special_data_from_oob
	.cfi_endproc
                                        // -- End function
	.globl	set_oob_special_page            // -- Begin function set_oob_special_page
	.p2align	2
	.type	set_oob_special_page,@function
set_oob_special_page:                   // @set_oob_special_page
	.cfi_startproc
// %bb.0:
	sub	sp, sp, #48                     // =48
	stp	x29, x30, [sp, #32]             // 16-byte Folded Spill
	add	x29, sp, #32                    // =32
	.cfi_def_cfa w29, 16
	.cfi_offset w30, -8
	.cfi_offset w29, -16
	stur	x0, [x29, #-8]
	str	x1, [sp, #16]
	str	w2, [sp, #12]
	str	w3, [sp, #8]
	strh	w4, [sp, #6]
	ldr	x9, [sp, #16]
	mov	w8, #255
	strb	w8, [x9]
	ldr	x0, [sp, #16]
	ldr	w1, [sp, #12]
	mov	w2, #1
	mov	w3, #4
	str	w3, [sp]                        // 4-byte Folded Spill
	bl	set_spare_data
	ldr	x0, [sp, #16]
	ldrh	w1, [sp, #6]
	mov	w2, #5
	mov	w3, #2
	bl	set_spare_data
	ldr	w3, [sp]                        // 4-byte Folded Reload
	ldr	x0, [sp, #16]
	ldr	w1, [sp, #8]
	mov	w2, #7
	bl	set_spare_data
	ldp	x29, x30, [sp, #32]             // 16-byte Folded Reload
	add	sp, sp, #48                     // =48
	ret
.Lfunc_end48:
	.size	set_oob_special_page, .Lfunc_end48-set_oob_special_page
	.cfi_endproc
                                        // -- End function
	.globl	set_spare_data                  // -- Begin function set_spare_data
	.p2align	2
	.type	set_spare_data,@function
set_spare_data:                         // @set_spare_data
	.cfi_startproc
// %bb.0:
	sub	sp, sp, #32                     // =32
	.cfi_def_cfa_offset 32
	str	x0, [sp, #24]
	str	w1, [sp, #20]
	strb	w2, [sp, #19]
	strb	w3, [sp, #18]
	str	wzr, [sp, #8]
.LBB49_1:                               // =>This Inner Loop Header: Depth=1
	ldr	w8, [sp, #8]
	ldrb	w9, [sp, #18]
	subs	w8, w8, w9
	b.hs	.LBB49_4
// %bb.2:                               //   in Loop: Header=BB49_1 Depth=1
	ldrb	w8, [sp, #18]
	ldr	w9, [sp, #8]
	subs	w8, w8, w9
	str	w8, [sp, #12]
	ldr	w8, [sp, #12]
	subs	w8, w8, #1                      // =1
	str	w8, [sp, #12]
	ldr	w8, [sp, #12]
	lsl	w8, w8, #3
	str	w8, [sp, #12]
	ldr	w8, [sp, #20]
	ldr	w9, [sp, #12]
	lsr	w8, w8, w9
	ldr	x9, [sp, #24]
	ldrb	w10, [sp, #19]
	ldr	w11, [sp, #8]
	add	w10, w10, w11
                                        // kill: def $x10 killed $w10
	add	x9, x9, x10
	strb	w8, [x9]
// %bb.3:                               //   in Loop: Header=BB49_1 Depth=1
	ldr	w8, [sp, #8]
	add	w8, w8, #1                      // =1
	str	w8, [sp, #8]
	b	.LBB49_1
.LBB49_4:
	add	sp, sp, #32                     // =32
	ret
.Lfunc_end49:
	.size	set_spare_data, .Lfunc_end49-set_spare_data
	.cfi_endproc
                                        // -- End function
	.globl	get_spare_data                  // -- Begin function get_spare_data
	.p2align	2
	.type	get_spare_data,@function
get_spare_data:                         // @get_spare_data
	.cfi_startproc
// %bb.0:
	sub	sp, sp, #32                     // =32
	.cfi_def_cfa_offset 32
	str	x0, [sp, #24]
	strb	w1, [sp, #23]
	strb	w2, [sp, #22]
	str	wzr, [sp, #12]
	str	wzr, [sp, #16]
.LBB50_1:                               // =>This Inner Loop Header: Depth=1
	ldr	w8, [sp, #12]
	ldrb	w9, [sp, #22]
	subs	w8, w8, w9
	b.hs	.LBB50_4
// %bb.2:                               //   in Loop: Header=BB50_1 Depth=1
	ldr	w8, [sp, #16]
	lsl	w8, w8, #8
	str	w8, [sp, #16]
	ldr	x8, [sp, #24]
	ldrb	w9, [sp, #23]
	ldr	w10, [sp, #12]
	add	w9, w9, w10
	ldrb	w9, [x8, w9, uxtw]
	ldr	w8, [sp, #16]
	orr	w8, w8, w9
	str	w8, [sp, #16]
// %bb.3:                               //   in Loop: Header=BB50_1 Depth=1
	ldr	w8, [sp, #12]
	add	w8, w8, #1                      // =1
	str	w8, [sp, #12]
	b	.LBB50_1
.LBB50_4:
	ldr	w0, [sp, #16]
	add	sp, sp, #32                     // =32
	ret
.Lfunc_end50:
	.size	get_spare_data, .Lfunc_end50-get_spare_data
	.cfi_endproc
                                        // -- End function
	.globl	set_oob_logic_page              // -- Begin function set_oob_logic_page
	.p2align	2
	.type	set_oob_logic_page,@function
set_oob_logic_page:                     // @set_oob_logic_page
	.cfi_startproc
// %bb.0:
	sub	sp, sp, #48                     // =48
	stp	x29, x30, [sp, #32]             // 16-byte Folded Spill
	add	x29, sp, #32                    // =32
	.cfi_def_cfa w29, 16
	.cfi_offset w30, -8
	.cfi_offset w29, -16
	stur	x0, [x29, #-8]
	str	x1, [sp, #16]
	str	w2, [sp, #12]
	str	w3, [sp, #8]
	strh	w4, [sp, #6]
	ldr	x9, [sp, #16]
	mov	w8, #255
	strb	w8, [x9]
	ldr	x0, [sp, #16]
	ldr	w1, [sp, #12]
	mov	w2, #1
	mov	w3, #4
	str	w3, [sp]                        // 4-byte Folded Spill
	bl	set_spare_data
	ldr	x0, [sp, #16]
	ldrh	w1, [sp, #6]
	mov	w2, #5
	mov	w3, #2
	bl	set_spare_data
	ldr	w3, [sp]                        // 4-byte Folded Reload
	ldr	x0, [sp, #16]
	ldr	w1, [sp, #8]
	mov	w2, #7
	bl	set_spare_data
	ldr	x9, [sp, #16]
	ldrb	w8, [x9, #1]
	orr	w8, w8, #0xc0
	strb	w8, [x9, #1]
	ldp	x29, x30, [sp, #32]             // 16-byte Folded Reload
	add	sp, sp, #48                     // =48
	ret
.Lfunc_end51:
	.size	set_oob_logic_page, .Lfunc_end51-set_oob_logic_page
	.cfi_endproc
                                        // -- End function
	.globl	set_no_use_page                 // -- Begin function set_no_use_page
	.p2align	2
	.type	set_no_use_page,@function
set_no_use_page:                        // @set_no_use_page
	.cfi_startproc
// %bb.0:
	sub	sp, sp, #48                     // =48
	stp	x29, x30, [sp, #32]             // 16-byte Folded Spill
	add	x29, sp, #32                    // =32
	.cfi_def_cfa w29, 16
	.cfi_offset w30, -8
	.cfi_offset w29, -16
	stur	x0, [x29, #-8]
	str	x1, [sp, #16]
	ldr	x9, [sp, #16]
	mov	w8, #255
	strb	w8, [x9]
	ldr	x0, [sp, #16]
	mov	w1, #170
	mov	w3, #1
	str	w3, [sp, #12]                   // 4-byte Folded Spill
	mov	w2, w3
	bl	set_spare_data
	ldr	w3, [sp, #12]                   // 4-byte Folded Reload
	ldr	x0, [sp, #16]
	mov	w1, #187
	mov	w2, #2
	bl	set_spare_data
	ldp	x29, x30, [sp, #32]             // 16-byte Folded Reload
	add	sp, sp, #48                     // =48
	ret
.Lfunc_end52:
	.size	set_no_use_page, .Lfunc_end52-set_no_use_page
	.cfi_endproc
                                        // -- End function
	.globl	set_start_block_flag            // -- Begin function set_start_block_flag
	.p2align	2
	.type	set_start_block_flag,@function
set_start_block_flag:                   // @set_start_block_flag
	.cfi_startproc
// %bb.0:
	sub	sp, sp, #48                     // =48
	stp	x29, x30, [sp, #32]             // 16-byte Folded Spill
	add	x29, sp, #32                    // =32
	.cfi_def_cfa w29, 16
	.cfi_offset w30, -8
	.cfi_offset w29, -16
	stur	x0, [x29, #-8]
	str	x1, [sp, #16]
	str	w2, [sp, #12]
	ldr	x9, [sp, #16]
	mov	w8, #255
	strb	w8, [x9]
	ldr	x0, [sp, #16]
	mov	w1, #170
	mov	w3, #1
	str	w3, [sp, #8]                    // 4-byte Folded Spill
	mov	w2, w3
	bl	set_spare_data
	ldr	w3, [sp, #8]                    // 4-byte Folded Reload
	ldr	x0, [sp, #16]
	mov	w1, #238
	mov	w2, #2
	bl	set_spare_data
	ldr	x0, [sp, #16]
	ldr	w1, [sp, #12]
	mov	w2, #3
	mov	w3, #4
	bl	set_spare_data
	ldp	x29, x30, [sp, #32]             // 16-byte Folded Reload
	add	sp, sp, #48                     // =48
	ret
.Lfunc_end53:
	.size	set_start_block_flag, .Lfunc_end53-set_start_block_flag
	.cfi_endproc
                                        // -- End function
	.globl	set_end_block_flag              // -- Begin function set_end_block_flag
	.p2align	2
	.type	set_end_block_flag,@function
set_end_block_flag:                     // @set_end_block_flag
	.cfi_startproc
// %bb.0:
	sub	sp, sp, #48                     // =48
	stp	x29, x30, [sp, #32]             // 16-byte Folded Spill
	add	x29, sp, #32                    // =32
	.cfi_def_cfa w29, 16
	.cfi_offset w30, -8
	.cfi_offset w29, -16
	stur	x0, [x29, #-8]
	str	x1, [sp, #16]
	ldr	x9, [sp, #16]
	mov	w8, #255
	strb	w8, [x9]
	ldr	x0, [sp, #16]
	mov	w1, #170
	mov	w3, #1
	str	w3, [sp, #12]                   // 4-byte Folded Spill
	mov	w2, w3
	bl	set_spare_data
	ldr	w3, [sp, #12]                   // 4-byte Folded Reload
	ldr	x0, [sp, #16]
	mov	w1, #204
	mov	w2, #2
	bl	set_spare_data
	ldp	x29, x30, [sp, #32]             // 16-byte Folded Reload
	add	sp, sp, #48                     // =48
	ret
.Lfunc_end54:
	.size	set_end_block_flag, .Lfunc_end54-set_end_block_flag
	.cfi_endproc
                                        // -- End function
	.globl	get_bad_flag_from_oob           // -- Begin function get_bad_flag_from_oob
	.p2align	2
	.type	get_bad_flag_from_oob,@function
get_bad_flag_from_oob:                  // @get_bad_flag_from_oob
	.cfi_startproc
// %bb.0:
	sub	sp, sp, #48                     // =48
	stp	x29, x30, [sp, #32]             // 16-byte Folded Spill
	add	x29, sp, #32                    // =32
	.cfi_def_cfa w29, 16
	.cfi_offset w30, -8
	.cfi_offset w29, -16
	str	x0, [sp, #16]
	ldr	x0, [sp, #16]
	mov	w1, #1
	mov	w2, #4
	bl	get_spare_data
	str	w0, [sp, #12]
	ldr	w8, [sp, #12]
	cbnz	w8, .LBB55_2
// %bb.1:
	sturb	wzr, [x29, #-1]
	b	.LBB55_3
.LBB55_2:
	mov	w8, #1
	sturb	w8, [x29, #-1]
.LBB55_3:
	ldurb	w0, [x29, #-1]
	ldp	x29, x30, [sp, #32]             // 16-byte Folded Reload
	add	sp, sp, #48                     // =48
	ret
.Lfunc_end55:
	.size	get_bad_flag_from_oob, .Lfunc_end55-get_bad_flag_from_oob
	.cfi_endproc
                                        // -- End function
	.globl	get_block_used_count_from_oob   // -- Begin function get_block_used_count_from_oob
	.p2align	2
	.type	get_block_used_count_from_oob,@function
get_block_used_count_from_oob:          // @get_block_used_count_from_oob
	.cfi_startproc
// %bb.0:
	sub	sp, sp, #32                     // =32
	stp	x29, x30, [sp, #16]             // 16-byte Folded Spill
	add	x29, sp, #16                    // =16
	.cfi_def_cfa w29, 16
	.cfi_offset w30, -8
	.cfi_offset w29, -16
	str	x0, [sp, #8]
	ldr	x0, [sp, #8]
	mov	w1, #7
	mov	w2, #4
	bl	get_spare_data
	str	w0, [sp, #4]
	ldr	w0, [sp, #4]
	ldp	x29, x30, [sp, #16]             // 16-byte Folded Reload
	add	sp, sp, #32                     // =32
	ret
.Lfunc_end56:
	.size	get_block_used_count_from_oob, .Lfunc_end56-get_block_used_count_from_oob
	.cfi_endproc
                                        // -- End function
	.globl	get_erase_count_from_oob        // -- Begin function get_erase_count_from_oob
	.p2align	2
	.type	get_erase_count_from_oob,@function
get_erase_count_from_oob:               // @get_erase_count_from_oob
	.cfi_startproc
// %bb.0:
	sub	sp, sp, #32                     // =32
	stp	x29, x30, [sp, #16]             // 16-byte Folded Spill
	add	x29, sp, #16                    // =16
	.cfi_def_cfa w29, 16
	.cfi_offset w30, -8
	.cfi_offset w29, -16
	str	x0, [sp, #8]
	ldr	x0, [sp, #8]
	mov	w1, #5
	mov	w2, #2
	bl	get_spare_data
	strh	w0, [sp, #6]
	ldrh	w0, [sp, #6]
	ldp	x29, x30, [sp, #16]             // 16-byte Folded Reload
	add	sp, sp, #32                     // =32
	ret
.Lfunc_end57:
	.size	get_erase_count_from_oob, .Lfunc_end57-get_erase_count_from_oob
	.cfi_endproc
                                        // -- End function
	.globl	is_ftl_start_flag_page          // -- Begin function is_ftl_start_flag_page
	.p2align	2
	.type	is_ftl_start_flag_page,@function
is_ftl_start_flag_page:                 // @is_ftl_start_flag_page
	.cfi_startproc
// %bb.0:
	sub	sp, sp, #16                     // =16
	.cfi_def_cfa_offset 16
	str	x0, [sp]
	ldr	x8, [sp]
	ldrb	w8, [x8, #1]
	subs	w8, w8, #170                    // =170
	b.ne	.LBB58_3
// %bb.1:
	ldr	x8, [sp]
	ldrb	w8, [x8, #2]
	subs	w8, w8, #238                    // =238
	b.ne	.LBB58_3
// %bb.2:
	mov	w8, #1
	str	w8, [sp, #12]
	b	.LBB58_4
.LBB58_3:
	str	wzr, [sp, #12]
.LBB58_4:
	ldr	w0, [sp, #12]
	add	sp, sp, #16                     // =16
	ret
.Lfunc_end58:
	.size	is_ftl_start_flag_page, .Lfunc_end58-is_ftl_start_flag_page
	.cfi_endproc
                                        // -- End function
	.globl	is_ftl_end_flag_page            // -- Begin function is_ftl_end_flag_page
	.p2align	2
	.type	is_ftl_end_flag_page,@function
is_ftl_end_flag_page:                   // @is_ftl_end_flag_page
	.cfi_startproc
// %bb.0:
	sub	sp, sp, #16                     // =16
	.cfi_def_cfa_offset 16
	str	x0, [sp]
	ldr	x8, [sp]
	ldrb	w8, [x8, #1]
	subs	w8, w8, #170                    // =170
	b.ne	.LBB59_3
// %bb.1:
	ldr	x8, [sp]
	ldrb	w8, [x8, #2]
	subs	w8, w8, #204                    // =204
	b.ne	.LBB59_3
// %bb.2:
	mov	w8, #1
	str	w8, [sp, #12]
	b	.LBB59_4
.LBB59_3:
	str	wzr, [sp, #12]
.LBB59_4:
	ldr	w0, [sp, #12]
	add	sp, sp, #16                     // =16
	ret
.Lfunc_end59:
	.size	is_ftl_end_flag_page, .Lfunc_end59-is_ftl_end_flag_page
	.cfi_endproc
                                        // -- End function
	.globl	is_ftl_special_data             // -- Begin function is_ftl_special_data
	.p2align	2
	.type	is_ftl_special_data,@function
is_ftl_special_data:                    // @is_ftl_special_data
	.cfi_startproc
// %bb.0:
	sub	sp, sp, #16                     // =16
	.cfi_def_cfa_offset 16
	str	x0, [sp]
	ldr	x8, [sp]
	ldrb	w8, [x8, #1]
	subs	w8, w8, #170                    // =170
	b.ne	.LBB60_2
// %bb.1:
	mov	w8, #1
	str	w8, [sp, #12]
	b	.LBB60_3
.LBB60_2:
	str	wzr, [sp, #12]
.LBB60_3:
	ldr	w0, [sp, #12]
	add	sp, sp, #16                     // =16
	ret
.Lfunc_end60:
	.size	is_ftl_special_data, .Lfunc_end60-is_ftl_special_data
	.cfi_endproc
                                        // -- End function
	.globl	is_ftl_logic_page_data          // -- Begin function is_ftl_logic_page_data
	.p2align	2
	.type	is_ftl_logic_page_data,@function
is_ftl_logic_page_data:                 // @is_ftl_logic_page_data
	.cfi_startproc
// %bb.0:
	sub	sp, sp, #16                     // =16
	.cfi_def_cfa_offset 16
	str	x0, [sp]
	ldr	x8, [sp]
	ldrb	w8, [x8, #1]
	and	w8, w8, #0xf0
	subs	w8, w8, #192                    // =192
	b.ne	.LBB61_2
// %bb.1:
	mov	w8, #1
	str	w8, [sp, #12]
	b	.LBB61_3
.LBB61_2:
	str	wzr, [sp, #12]
.LBB61_3:
	ldr	w0, [sp, #12]
	add	sp, sp, #16                     // =16
	ret
.Lfunc_end61:
	.size	is_ftl_logic_page_data, .Lfunc_end61-is_ftl_logic_page_data
	.cfi_endproc
                                        // -- End function
	.globl	is_nouse_page                   // -- Begin function is_nouse_page
	.p2align	2
	.type	is_nouse_page,@function
is_nouse_page:                          // @is_nouse_page
	.cfi_startproc
// %bb.0:
	sub	sp, sp, #32                     // =32
	.cfi_def_cfa_offset 32
	str	x0, [sp, #16]
	str	wzr, [sp, #8]
	str	wzr, [sp, #12]
.LBB62_1:                               // =>This Inner Loop Header: Depth=1
	ldr	w8, [sp, #12]
	subs	w8, w8, #10                     // =10
	b.hs	.LBB62_6
// %bb.2:                               //   in Loop: Header=BB62_1 Depth=1
	ldr	x8, [sp, #16]
	ldr	w9, [sp, #12]
                                        // kill: def $x9 killed $w9
	ldrb	w8, [x8, x9]
	subs	w8, w8, #255                    // =255
	b.ne	.LBB62_4
// %bb.3:                               //   in Loop: Header=BB62_1 Depth=1
	ldr	w8, [sp, #8]
	add	w8, w8, #1                      // =1
	str	w8, [sp, #8]
.LBB62_4:                               //   in Loop: Header=BB62_1 Depth=1
// %bb.5:                               //   in Loop: Header=BB62_1 Depth=1
	ldr	w8, [sp, #12]
	add	w8, w8, #1                      // =1
	str	w8, [sp, #12]
	b	.LBB62_1
.LBB62_6:
	ldr	w8, [sp, #8]
	subs	w8, w8, #9                      // =9
	b.lo	.LBB62_9
// %bb.7:
	ldr	x8, [sp, #16]
	ldrb	w8, [x8]
	subs	w8, w8, #255                    // =255
	b.ne	.LBB62_9
// %bb.8:
	mov	w8, #1
	str	w8, [sp, #28]
	b	.LBB62_10
.LBB62_9:
	str	wzr, [sp, #28]
.LBB62_10:
	ldr	w0, [sp, #28]
	add	sp, sp, #32                     // =32
	ret
.Lfunc_end62:
	.size	is_nouse_page, .Lfunc_end62-is_nouse_page
	.cfi_endproc
                                        // -- End function
	.globl	is_fill_page                    // -- Begin function is_fill_page
	.p2align	2
	.type	is_fill_page,@function
is_fill_page:                           // @is_fill_page
	.cfi_startproc
// %bb.0:
	sub	sp, sp, #48                     // =48
	stp	x29, x30, [sp, #32]             // 16-byte Folded Spill
	add	x29, sp, #32                    // =32
	.cfi_def_cfa w29, 16
	.cfi_offset w30, -8
	.cfi_offset w29, -16
	str	x0, [sp, #16]
	ldr	x0, [sp, #16]
	bl	get_special_data_from_oob
	str	w0, [sp, #12]
	ldr	w8, [sp, #12]
	mov	w9, #1431655765
	subs	w8, w8, w9
	b.ne	.LBB63_2
// %bb.1:
	mov	w8, #1
	stur	w8, [x29, #-4]
	b	.LBB63_3
.LBB63_2:
	stur	wzr, [x29, #-4]
.LBB63_3:
	ldur	w0, [x29, #-4]
	ldp	x29, x30, [sp, #32]             // 16-byte Folded Reload
	add	sp, sp, #48                     // =48
	ret
.Lfunc_end63:
	.size	is_fill_page, .Lfunc_end63-is_fill_page
	.cfi_endproc
                                        // -- End function
	.globl	is_function_info_page           // -- Begin function is_function_info_page
	.p2align	2
	.type	is_function_info_page,@function
is_function_info_page:                  // @is_function_info_page
	.cfi_startproc
// %bb.0:
	sub	sp, sp, #48                     // =48
	stp	x29, x30, [sp, #32]             // 16-byte Folded Spill
	add	x29, sp, #32                    // =32
	.cfi_def_cfa w29, 16
	.cfi_offset w30, -8
	.cfi_offset w29, -16
	str	x0, [sp, #16]
	ldr	x0, [sp, #16]
	bl	get_special_data_from_oob
	str	w0, [sp, #12]
	ldr	w8, [sp, #12]
	and	w8, w8, #0xffff0000
	mov	w9, #-1441726464
	subs	w8, w8, w9
	b.ne	.LBB64_2
// %bb.1:
	mov	w8, #1
	stur	w8, [x29, #-4]
	b	.LBB64_3
.LBB64_2:
	stur	wzr, [x29, #-4]
.LBB64_3:
	ldur	w0, [x29, #-4]
	ldp	x29, x30, [sp, #32]             // 16-byte Folded Reload
	add	sp, sp, #48                     // =48
	ret
.Lfunc_end64:
	.size	is_function_info_page, .Lfunc_end64-is_function_info_page
	.cfi_endproc
                                        // -- End function
	.globl	is_power_down_info_page         // -- Begin function is_power_down_info_page
	.p2align	2
	.type	is_power_down_info_page,@function
is_power_down_info_page:                // @is_power_down_info_page
	.cfi_startproc
// %bb.0:
	sub	sp, sp, #48                     // =48
	stp	x29, x30, [sp, #32]             // 16-byte Folded Spill
	add	x29, sp, #32                    // =32
	.cfi_def_cfa w29, 16
	.cfi_offset w30, -8
	.cfi_offset w29, -16
	str	x0, [sp, #16]
	ldr	x0, [sp, #16]
	bl	get_special_data_from_oob
	str	w0, [sp, #12]
	ldr	w8, [sp, #12]
	mov	w9, #13107
	movk	w9, #43537, lsl #16
	subs	w8, w8, w9
	b.ne	.LBB65_2
// %bb.1:
	mov	w8, #1
	stur	w8, [x29, #-4]
	b	.LBB65_3
.LBB65_2:
	stur	wzr, [x29, #-4]
.LBB65_3:
	ldur	w0, [x29, #-4]
	ldp	x29, x30, [sp, #32]             // 16-byte Folded Reload
	add	sp, sp, #48                     // =48
	ret
.Lfunc_end65:
	.size	is_power_down_info_page, .Lfunc_end65-is_power_down_info_page
	.cfi_endproc
                                        // -- End function
	.globl	malloc_logic_page_map           // -- Begin function malloc_logic_page_map
	.p2align	2
	.type	malloc_logic_page_map,@function
malloc_logic_page_map:                  // @malloc_logic_page_map
	.cfi_startproc
// %bb.0:
	sub	sp, sp, #48                     // =48
	stp	x29, x30, [sp, #32]             // 16-byte Folded Spill
	add	x29, sp, #32                    // =32
	.cfi_def_cfa w29, 16
	.cfi_offset w30, -8
	.cfi_offset w29, -16
	str	x0, [sp, #16]
	str	w1, [sp, #12]
	mov	w8, #262144
	str	w8, [sp]
	str	wzr, [sp, #4]
.LBB66_1:                               // =>This Inner Loop Header: Depth=1
	ldr	w8, [sp, #4]
	subs	w8, w8, #25                     // =25
	b.hs	.LBB66_4
// %bb.2:                               //   in Loop: Header=BB66_1 Depth=1
	ldr	x8, [sp, #16]
	add	x8, x8, #72                     // =72
	ldr	w9, [sp, #4]
                                        // kill: def $x9 killed $w9
	add	x8, x8, x9, lsl #3
	str	xzr, [x8]
// %bb.3:                               //   in Loop: Header=BB66_1 Depth=1
	ldr	w8, [sp, #4]
	add	w8, w8, #1                      // =1
	str	w8, [sp, #4]
	b	.LBB66_1
.LBB66_4:
	str	wzr, [sp, #4]
.LBB66_5:                               // =>This Inner Loop Header: Depth=1
	ldr	w8, [sp, #4]
	subs	w8, w8, #25                     // =25
	b.hs	.LBB66_15
// %bb.6:                               //   in Loop: Header=BB66_5 Depth=1
	ldr	w8, [sp, #12]
	ldr	w9, [sp]
	subs	w8, w8, w9
	b.lo	.LBB66_10
// %bb.7:                               //   in Loop: Header=BB66_5 Depth=1
	ldr	w8, [sp]
                                        // kill: def $x8 killed $w8
                                        // kill: def $w8 killed $w8 killed $x8
	lsl	w8, w8, #2
	str	w8, [sp, #8]
	ldr	w0, [sp, #8]
	bl	nftl_malloc
	ldr	x8, [sp, #16]
	add	x8, x8, #72                     // =72
	ldr	w9, [sp, #4]
                                        // kill: def $x9 killed $w9
	add	x8, x8, x9, lsl #3
	str	x0, [x8]
	ldr	x8, [sp, #16]
	add	x8, x8, #72                     // =72
	ldr	w9, [sp, #4]
                                        // kill: def $x9 killed $w9
	ldr	x8, [x8, x9, lsl #3]
	cbnz	x8, .LBB66_9
// %bb.8:
	ldr	w1, [sp, #4]
	adrp	x0, .L.str.40
	add	x0, x0, :lo12:.L.str.40
	bl	nand_print
	mov	w8, #-2
	stur	w8, [x29, #-4]
	b	.LBB66_18
.LBB66_9:                               //   in Loop: Header=BB66_5 Depth=1
	ldr	w9, [sp]
	ldr	w8, [sp, #12]
	subs	w8, w8, w9
	str	w8, [sp, #12]
	ldr	x8, [sp, #16]
	add	x8, x8, #72                     // =72
	ldr	w9, [sp, #4]
                                        // kill: def $x9 killed $w9
	ldr	x0, [x8, x9, lsl #3]
	ldr	w2, [sp, #8]
	mov	w1, #-1
	bl	nand_memset
	b	.LBB66_13
.LBB66_10:
	ldr	w8, [sp, #12]
                                        // kill: def $x8 killed $w8
                                        // kill: def $w8 killed $w8 killed $x8
	lsl	w8, w8, #2
	str	w8, [sp, #8]
	ldr	w0, [sp, #8]
	bl	nftl_malloc
	ldr	x8, [sp, #16]
	add	x8, x8, #72                     // =72
	ldr	w9, [sp, #4]
                                        // kill: def $x9 killed $w9
	add	x8, x8, x9, lsl #3
	str	x0, [x8]
	ldr	x8, [sp, #16]
	add	x8, x8, #72                     // =72
	ldr	w9, [sp, #4]
                                        // kill: def $x9 killed $w9
	ldr	x8, [x8, x9, lsl #3]
	cbnz	x8, .LBB66_12
// %bb.11:
	ldr	w1, [sp, #4]
	adrp	x0, .L.str.41
	add	x0, x0, :lo12:.L.str.41
	bl	nand_print
	mov	w8, #-2
	stur	w8, [x29, #-4]
	b	.LBB66_18
.LBB66_12:
	ldr	x8, [sp, #16]
	add	x8, x8, #72                     // =72
	ldr	w9, [sp, #4]
                                        // kill: def $x9 killed $w9
	ldr	x0, [x8, x9, lsl #3]
	ldr	w2, [sp, #8]
	mov	w1, #-1
	bl	nand_memset
	str	wzr, [sp, #12]
	b	.LBB66_15
.LBB66_13:                              //   in Loop: Header=BB66_5 Depth=1
// %bb.14:                              //   in Loop: Header=BB66_5 Depth=1
	ldr	w8, [sp, #4]
	add	w8, w8, #1                      // =1
	str	w8, [sp, #4]
	b	.LBB66_5
.LBB66_15:
	ldr	w8, [sp, #12]
	cbz	w8, .LBB66_17
// %bb.16:
	ldr	w1, [sp, #12]
	adrp	x0, .L.str.42
	add	x0, x0, :lo12:.L.str.42
	bl	nand_print
	mov	w8, #-2
	stur	w8, [x29, #-4]
	b	.LBB66_18
.LBB66_17:
	stur	wzr, [x29, #-4]
.LBB66_18:
	ldur	w0, [x29, #-4]
	ldp	x29, x30, [sp, #32]             // 16-byte Folded Reload
	add	sp, sp, #48                     // =48
	ret
.Lfunc_end66:
	.size	malloc_logic_page_map, .Lfunc_end66-malloc_logic_page_map
	.cfi_endproc
                                        // -- End function
	.globl	nftl_malloc                     // -- Begin function nftl_malloc
	.p2align	2
	.type	nftl_malloc,@function
nftl_malloc:                            // @nftl_malloc
	.cfi_startproc
// %bb.0:
	sub	sp, sp, #32                     // =32
	stp	x29, x30, [sp, #16]             // 16-byte Folded Spill
	add	x29, sp, #16                    // =16
	.cfi_def_cfa w29, 16
	.cfi_offset w30, -8
	.cfi_offset w29, -16
	stur	w0, [x29, #-4]
	ldur	w8, [x29, #-4]
	subs	w8, w8, #384, lsl #12           // =1572864
	b.ls	.LBB67_2
// %bb.1:
	ldur	w1, [x29, #-4]
	adrp	x0, .L.str.371
	add	x0, x0, :lo12:.L.str.371
	bl	nand_print
.LBB67_2:
	ldur	w0, [x29, #-4]
	bl	nand_malloc
	ldp	x29, x30, [sp, #16]             // 16-byte Folded Reload
	add	sp, sp, #32                     // =32
	ret
.Lfunc_end67:
	.size	nftl_malloc, .Lfunc_end67-nftl_malloc
	.cfi_endproc
                                        // -- End function
	.globl	free_logic_page_map             // -- Begin function free_logic_page_map
	.p2align	2
	.type	free_logic_page_map,@function
free_logic_page_map:                    // @free_logic_page_map
	.cfi_startproc
// %bb.0:
	sub	sp, sp, #32                     // =32
	stp	x29, x30, [sp, #16]             // 16-byte Folded Spill
	add	x29, sp, #16                    // =16
	.cfi_def_cfa w29, 16
	.cfi_offset w30, -8
	.cfi_offset w29, -16
	str	x0, [sp, #8]
	str	wzr, [sp, #4]
.LBB68_1:                               // =>This Inner Loop Header: Depth=1
	ldr	w8, [sp, #4]
	subs	w8, w8, #25                     // =25
	b.hs	.LBB68_6
// %bb.2:                               //   in Loop: Header=BB68_1 Depth=1
	ldr	x8, [sp, #8]
	add	x8, x8, #72                     // =72
	ldr	w9, [sp, #4]
                                        // kill: def $x9 killed $w9
	ldr	x8, [x8, x9, lsl #3]
	cbz	x8, .LBB68_4
// %bb.3:                               //   in Loop: Header=BB68_1 Depth=1
	ldr	x8, [sp, #8]
	add	x8, x8, #72                     // =72
	ldr	w9, [sp, #4]
                                        // kill: def $x9 killed $w9
	ldr	x0, [x8, x9, lsl #3]
	bl	nftl_free
.LBB68_4:                               //   in Loop: Header=BB68_1 Depth=1
// %bb.5:                               //   in Loop: Header=BB68_1 Depth=1
	ldr	w8, [sp, #4]
	add	w8, w8, #1                      // =1
	str	w8, [sp, #4]
	b	.LBB68_1
.LBB68_6:
	mov	w0, wzr
	ldp	x29, x30, [sp, #16]             // 16-byte Folded Reload
	add	sp, sp, #32                     // =32
	ret
.Lfunc_end68:
	.size	free_logic_page_map, .Lfunc_end68-free_logic_page_map
	.cfi_endproc
                                        // -- End function
	.globl	nftl_free                       // -- Begin function nftl_free
	.p2align	2
	.type	nftl_free,@function
nftl_free:                              // @nftl_free
	.cfi_startproc
// %bb.0:
	sub	sp, sp, #32                     // =32
	stp	x29, x30, [sp, #16]             // 16-byte Folded Spill
	add	x29, sp, #16                    // =16
	.cfi_def_cfa w29, 16
	.cfi_offset w30, -8
	.cfi_offset w29, -16
	str	x0, [sp, #8]
	ldr	x0, [sp, #8]
	bl	nand_free
	ldp	x29, x30, [sp, #16]             // 16-byte Folded Reload
	add	sp, sp, #32                     // =32
	ret
.Lfunc_end69:
	.size	nftl_free, .Lfunc_end69-nftl_free
	.cfi_endproc
                                        // -- End function
	.globl	add_free_list                   // -- Begin function add_free_list
	.p2align	2
	.type	add_free_list,@function
add_free_list:                          // @add_free_list
	.cfi_startproc
// %bb.0:
	sub	sp, sp, #32                     // =32
	.cfi_def_cfa_offset 32
	str	x0, [sp, #16]
	str	x1, [sp, #8]
	ldr	x8, [sp, #16]
	add	x8, x8, #272                    // =272
	str	x8, [sp]
.LBB70_1:                               // =>This Inner Loop Header: Depth=1
	ldr	x8, [sp]
	ldr	x8, [x8, #32]
	cbz	x8, .LBB70_6
// %bb.2:                               //   in Loop: Header=BB70_1 Depth=1
	ldr	x8, [sp]
	ldr	x8, [x8, #32]
	ldrh	w8, [x8, #6]
	ldr	x9, [sp, #8]
	ldrh	w9, [x9, #6]
	subs	w8, w8, w9
	b.lt	.LBB70_4
// %bb.3:
	ldr	x8, [sp, #8]
	ldr	x9, [sp]
	ldr	x9, [x9, #32]
	str	x8, [x9, #40]
	ldr	x8, [sp]
	ldr	x8, [x8, #32]
	ldr	x9, [sp, #8]
	str	x8, [x9, #32]
	ldr	x8, [sp, #8]
	ldr	x9, [sp]
	str	x8, [x9, #32]
	ldr	x8, [sp]
	ldr	x9, [sp, #8]
	str	x8, [x9, #40]
	str	wzr, [sp, #28]
	b	.LBB70_7
.LBB70_4:                               //   in Loop: Header=BB70_1 Depth=1
// %bb.5:                               //   in Loop: Header=BB70_1 Depth=1
	ldr	x8, [sp]
	ldr	x8, [x8, #32]
	str	x8, [sp]
	b	.LBB70_1
.LBB70_6:
	ldr	x8, [sp, #8]
	ldr	x9, [sp]
	str	x8, [x9, #32]
	ldr	x8, [sp, #8]
	str	xzr, [x8, #32]
	ldr	x8, [sp]
	ldr	x9, [sp, #8]
	str	x8, [x9, #40]
	str	wzr, [sp, #28]
.LBB70_7:
	ldr	w0, [sp, #28]
	add	sp, sp, #32                     // =32
	ret
.Lfunc_end70:
	.size	add_free_list, .Lfunc_end70-add_free_list
	.cfi_endproc
                                        // -- End function
	.globl	del_free_list                   // -- Begin function del_free_list
	.p2align	2
	.type	del_free_list,@function
del_free_list:                          // @del_free_list
	.cfi_startproc
// %bb.0:
	sub	sp, sp, #16                     // =16
	.cfi_def_cfa_offset 16
	str	x0, [sp, #8]
	ldr	x8, [sp, #8]
	add	x8, x8, #272                    // =272
	str	x8, [sp]
	ldr	x8, [sp]
	ldr	x8, [x8, #32]
	str	x8, [sp]
	ldr	x8, [sp]
	cbz	x8, .LBB71_4
// %bb.1:
	ldr	x8, [sp]
	ldr	x8, [x8, #32]
	ldr	x9, [sp, #8]
	str	x8, [x9, #304]
	ldr	x8, [sp]
	ldr	x8, [x8, #32]
	ldr	x9, [sp, #8]
	str	x8, [x9, #304]
	ldr	x8, [sp]
	ldr	x8, [x8, #32]
	cbz	x8, .LBB71_3
// %bb.2:
	ldr	x8, [sp, #8]
	add	x8, x8, #272                    // =272
	ldr	x9, [sp]
	ldr	x9, [x9, #32]
	str	x8, [x9, #40]
.LBB71_3:
.LBB71_4:
	ldr	x0, [sp]
	add	sp, sp, #16                     // =16
	ret
.Lfunc_end71:
	.size	del_free_list, .Lfunc_end71-del_free_list
	.cfi_endproc
                                        // -- End function
	.globl	del_free_list_by_block          // -- Begin function del_free_list_by_block
	.p2align	2
	.type	del_free_list_by_block,@function
del_free_list_by_block:                 // @del_free_list_by_block
	.cfi_startproc
// %bb.0:
	sub	sp, sp, #32                     // =32
	.cfi_def_cfa_offset 32
	str	x0, [sp, #24]
	str	x1, [sp, #16]
	ldr	x8, [sp, #24]
	add	x8, x8, #272                    // =272
	str	x8, [sp, #8]
	ldr	x8, [sp, #8]
	ldr	x8, [x8, #32]
	str	x8, [sp, #8]
.LBB72_1:                               // =>This Inner Loop Header: Depth=1
	ldr	x8, [sp, #8]
	cbz	x8, .LBB72_8
// %bb.2:                               //   in Loop: Header=BB72_1 Depth=1
	ldr	x8, [sp, #8]
	ldr	x9, [sp, #16]
	subs	x8, x8, x9
	b.ne	.LBB72_6
// %bb.3:
	ldr	x8, [sp, #8]
	ldr	x8, [x8, #32]
	ldr	x9, [sp, #8]
	ldr	x9, [x9, #40]
	str	x8, [x9, #32]
	ldr	x8, [sp, #8]
	ldr	x8, [x8, #32]
	cbz	x8, .LBB72_5
// %bb.4:
	ldr	x8, [sp, #8]
	ldr	x8, [x8, #40]
	ldr	x9, [sp, #8]
	ldr	x9, [x9, #32]
	str	x8, [x9, #40]
.LBB72_5:
	ldr	x8, [sp, #8]
	str	xzr, [x8, #40]
	ldr	x8, [sp, #8]
	str	xzr, [x8, #32]
	b	.LBB72_8
.LBB72_6:                               //   in Loop: Header=BB72_1 Depth=1
// %bb.7:                               //   in Loop: Header=BB72_1 Depth=1
	ldr	x8, [sp, #8]
	ldr	x8, [x8, #32]
	str	x8, [sp, #8]
	b	.LBB72_1
.LBB72_8:
	ldr	x0, [sp, #8]
	add	sp, sp, #32                     // =32
	ret
.Lfunc_end72:
	.size	del_free_list_by_block, .Lfunc_end72-del_free_list_by_block
	.cfi_endproc
                                        // -- End function
	.globl	print_free_list                 // -- Begin function print_free_list
	.p2align	2
	.type	print_free_list,@function
print_free_list:                        // @print_free_list
	.cfi_startproc
// %bb.0:
	sub	sp, sp, #32                     // =32
	stp	x29, x30, [sp, #16]             // 16-byte Folded Spill
	add	x29, sp, #16                    // =16
	.cfi_def_cfa w29, 16
	.cfi_offset w30, -8
	.cfi_offset w29, -16
	str	x0, [sp, #8]
	ldr	x8, [sp, #8]
	add	x8, x8, #272                    // =272
	str	x8, [sp]
	ldr	x8, [sp, #8]
	ldr	w8, [x8, #656]
	cbnz	w8, .LBB73_2
// %bb.1:
	b	.LBB73_6
.LBB73_2:
	adrp	x0, .L.str.43
	add	x0, x0, :lo12:.L.str.43
	bl	nand_print_dbg
	ldr	x8, [sp]
	ldr	x8, [x8, #32]
	str	x8, [sp]
.LBB73_3:                               // =>This Inner Loop Header: Depth=1
	ldr	x8, [sp]
	cbz	x8, .LBB73_6
// %bb.4:                               //   in Loop: Header=BB73_3 Depth=1
	ldr	x8, [sp]
	ldrh	w1, [x8]
	ldr	x8, [sp]
	ldrh	w2, [x8, #6]
	adrp	x0, .L.str.44
	add	x0, x0, :lo12:.L.str.44
	bl	nand_print_dbg
	ldr	x8, [sp]
	ldr	w1, [x8, #8]
	adrp	x0, .L.str.45
	add	x0, x0, :lo12:.L.str.45
	bl	nand_print_dbg
	ldr	x8, [sp]
	ldrh	w1, [x8, #2]
	adrp	x0, .L.str.46
	add	x0, x0, :lo12:.L.str.46
	bl	nand_print_dbg
// %bb.5:                               //   in Loop: Header=BB73_3 Depth=1
	ldr	x8, [sp]
	ldr	x8, [x8, #32]
	str	x8, [sp]
	b	.LBB73_3
.LBB73_6:
	ldp	x29, x30, [sp, #16]             // 16-byte Folded Reload
	add	sp, sp, #32                     // =32
	ret
.Lfunc_end73:
	.size	print_free_list, .Lfunc_end73-print_free_list
	.cfi_endproc
                                        // -- End function
	.globl	add_block_invalid_list          // -- Begin function add_block_invalid_list
	.p2align	2
	.type	add_block_invalid_list,@function
add_block_invalid_list:                 // @add_block_invalid_list
	.cfi_startproc
// %bb.0:
	sub	sp, sp, #32                     // =32
	.cfi_def_cfa_offset 32
	str	x0, [sp, #16]
	str	x1, [sp, #8]
	ldr	x8, [sp, #16]
	add	x8, x8, #336                    // =336
	str	x8, [sp]
.LBB74_1:                               // =>This Inner Loop Header: Depth=1
	ldr	x8, [sp]
	ldr	x8, [x8, #16]
	cbz	x8, .LBB74_6
// %bb.2:                               //   in Loop: Header=BB74_1 Depth=1
	ldr	x8, [sp]
	ldr	x8, [x8, #16]
	ldrh	w8, [x8, #4]
	ldr	x9, [sp, #8]
	ldrh	w9, [x9, #4]
	subs	w8, w8, w9
	b.gt	.LBB74_4
// %bb.3:
	ldr	x8, [sp, #8]
	ldr	x9, [sp]
	ldr	x9, [x9, #16]
	str	x8, [x9, #24]
	ldr	x8, [sp]
	ldr	x8, [x8, #16]
	ldr	x9, [sp, #8]
	str	x8, [x9, #16]
	ldr	x8, [sp, #8]
	ldr	x9, [sp]
	str	x8, [x9, #16]
	ldr	x8, [sp]
	ldr	x9, [sp, #8]
	str	x8, [x9, #24]
	str	wzr, [sp, #28]
	b	.LBB74_7
.LBB74_4:                               //   in Loop: Header=BB74_1 Depth=1
// %bb.5:                               //   in Loop: Header=BB74_1 Depth=1
	ldr	x8, [sp]
	ldr	x8, [x8, #16]
	str	x8, [sp]
	b	.LBB74_1
.LBB74_6:
	ldr	x8, [sp, #8]
	ldr	x9, [sp]
	str	x8, [x9, #16]
	ldr	x8, [sp, #8]
	str	xzr, [x8, #16]
	ldr	x8, [sp]
	ldr	x9, [sp, #8]
	str	x8, [x9, #24]
	str	wzr, [sp, #28]
.LBB74_7:
	ldr	w0, [sp, #28]
	add	sp, sp, #32                     // =32
	ret
.Lfunc_end74:
	.size	add_block_invalid_list, .Lfunc_end74-add_block_invalid_list
	.cfi_endproc
                                        // -- End function
	.globl	del_block_invalid_list          // -- Begin function del_block_invalid_list
	.p2align	2
	.type	del_block_invalid_list,@function
del_block_invalid_list:                 // @del_block_invalid_list
	.cfi_startproc
// %bb.0:
	sub	sp, sp, #16                     // =16
	.cfi_def_cfa_offset 16
	str	x0, [sp, #8]
	ldr	x8, [sp, #8]
	add	x8, x8, #336                    // =336
	str	x8, [sp]
	ldr	x8, [sp]
	ldr	x8, [x8, #16]
	str	x8, [sp]
	ldr	x8, [sp]
	cbz	x8, .LBB75_4
// %bb.1:
	ldr	x8, [sp]
	ldr	x8, [x8, #16]
	ldr	x9, [sp, #8]
	str	x8, [x9, #352]
	ldr	x8, [sp]
	ldr	x8, [x8, #16]
	cbz	x8, .LBB75_3
// %bb.2:
	ldr	x8, [sp, #8]
	add	x8, x8, #336                    // =336
	ldr	x9, [sp]
	ldr	x9, [x9, #16]
	str	x8, [x9, #24]
.LBB75_3:
.LBB75_4:
	ldr	x0, [sp]
	add	sp, sp, #16                     // =16
	ret
.Lfunc_end75:
	.size	del_block_invalid_list, .Lfunc_end75-del_block_invalid_list
	.cfi_endproc
                                        // -- End function
	.globl	del_block_invalid_list_by_block // -- Begin function del_block_invalid_list_by_block
	.p2align	2
	.type	del_block_invalid_list_by_block,@function
del_block_invalid_list_by_block:        // @del_block_invalid_list_by_block
	.cfi_startproc
// %bb.0:
	sub	sp, sp, #32                     // =32
	.cfi_def_cfa_offset 32
	str	x0, [sp, #24]
	str	x1, [sp, #16]
	ldr	x8, [sp, #24]
	add	x8, x8, #336                    // =336
	str	x8, [sp, #8]
	ldr	x8, [sp, #8]
	ldr	x8, [x8, #16]
	str	x8, [sp, #8]
.LBB76_1:                               // =>This Inner Loop Header: Depth=1
	ldr	x8, [sp, #8]
	cbz	x8, .LBB76_8
// %bb.2:                               //   in Loop: Header=BB76_1 Depth=1
	ldr	x8, [sp, #8]
	ldr	x9, [sp, #16]
	subs	x8, x8, x9
	b.ne	.LBB76_6
// %bb.3:
	ldr	x8, [sp, #8]
	ldr	x8, [x8, #16]
	ldr	x9, [sp, #8]
	ldr	x9, [x9, #24]
	str	x8, [x9, #16]
	ldr	x8, [sp, #8]
	ldr	x8, [x8, #16]
	cbz	x8, .LBB76_5
// %bb.4:
	ldr	x8, [sp, #8]
	ldr	x8, [x8, #24]
	ldr	x9, [sp, #8]
	ldr	x9, [x9, #16]
	str	x8, [x9, #24]
.LBB76_5:
	ldr	x8, [sp, #8]
	str	xzr, [x8, #24]
	ldr	x8, [sp, #8]
	str	xzr, [x8, #16]
	b	.LBB76_8
.LBB76_6:                               //   in Loop: Header=BB76_1 Depth=1
// %bb.7:                               //   in Loop: Header=BB76_1 Depth=1
	ldr	x8, [sp, #8]
	ldr	x8, [x8, #16]
	str	x8, [sp, #8]
	b	.LBB76_1
.LBB76_8:
	ldr	x0, [sp, #8]
	add	sp, sp, #32                     // =32
	ret
.Lfunc_end76:
	.size	del_block_invalid_list_by_block, .Lfunc_end76-del_block_invalid_list_by_block
	.cfi_endproc
                                        // -- End function
	.globl	print_block_invalid_list        // -- Begin function print_block_invalid_list
	.p2align	2
	.type	print_block_invalid_list,@function
print_block_invalid_list:               // @print_block_invalid_list
	.cfi_startproc
// %bb.0:
	sub	sp, sp, #32                     // =32
	stp	x29, x30, [sp, #16]             // 16-byte Folded Spill
	add	x29, sp, #16                    // =16
	.cfi_def_cfa w29, 16
	.cfi_offset w30, -8
	.cfi_offset w29, -16
	str	x0, [sp, #8]
	ldr	x8, [sp, #8]
	add	x8, x8, #336                    // =336
	str	x8, [sp]
	ldr	x8, [sp, #8]
	ldr	w8, [x8, #656]
	cbnz	w8, .LBB77_2
// %bb.1:
	b	.LBB77_6
.LBB77_2:
	adrp	x0, .L.str.47
	add	x0, x0, :lo12:.L.str.47
	bl	nand_print_dbg
	ldr	x8, [sp]
	ldr	x8, [x8, #16]
	str	x8, [sp]
.LBB77_3:                               // =>This Inner Loop Header: Depth=1
	ldr	x8, [sp]
	cbz	x8, .LBB77_6
// %bb.4:                               //   in Loop: Header=BB77_3 Depth=1
	ldr	x8, [sp]
	ldrh	w1, [x8]
	ldr	x8, [sp]
	ldrh	w2, [x8, #6]
	adrp	x0, .L.str.44
	add	x0, x0, :lo12:.L.str.44
	bl	nand_print_dbg
	ldr	x8, [sp]
	ldr	w1, [x8, #8]
	ldr	x8, [sp]
	ldrh	w2, [x8, #4]
	adrp	x0, .L.str.48
	add	x0, x0, :lo12:.L.str.48
	bl	nand_print_dbg
	ldr	x8, [sp]
	ldrh	w1, [x8, #2]
	adrp	x0, .L.str.46
	add	x0, x0, :lo12:.L.str.46
	bl	nand_print_dbg
// %bb.5:                               //   in Loop: Header=BB77_3 Depth=1
	ldr	x8, [sp]
	ldr	x8, [x8, #16]
	str	x8, [sp]
	b	.LBB77_3
.LBB77_6:
	ldp	x29, x30, [sp, #16]             // 16-byte Folded Reload
	add	sp, sp, #32                     // =32
	ret
.Lfunc_end77:
	.size	print_block_invalid_list, .Lfunc_end77-print_block_invalid_list
	.cfi_endproc
                                        // -- End function
	.globl	add_block_count_list            // -- Begin function add_block_count_list
	.p2align	2
	.type	add_block_count_list,@function
add_block_count_list:                   // @add_block_count_list
	.cfi_startproc
// %bb.0:
	sub	sp, sp, #32                     // =32
	.cfi_def_cfa_offset 32
	str	x0, [sp, #16]
	str	x1, [sp, #8]
	ldr	x8, [sp, #16]
	add	x8, x8, #400                    // =400
	str	x8, [sp]
.LBB78_1:                               // =>This Inner Loop Header: Depth=1
	ldr	x8, [sp]
	ldr	x8, [x8, #48]
	cbz	x8, .LBB78_6
// %bb.2:                               //   in Loop: Header=BB78_1 Depth=1
	ldr	x8, [sp]
	ldr	x8, [x8, #48]
	ldr	w8, [x8, #8]
	ldr	x9, [sp, #8]
	ldr	w9, [x9, #8]
	subs	w8, w8, w9
	b.lt	.LBB78_4
// %bb.3:
	ldr	x8, [sp, #8]
	ldr	x9, [sp]
	ldr	x9, [x9, #48]
	str	x8, [x9, #56]
	ldr	x8, [sp]
	ldr	x8, [x8, #48]
	ldr	x9, [sp, #8]
	str	x8, [x9, #48]
	ldr	x8, [sp, #8]
	ldr	x9, [sp]
	str	x8, [x9, #48]
	ldr	x8, [sp]
	ldr	x9, [sp, #8]
	str	x8, [x9, #56]
	str	wzr, [sp, #28]
	b	.LBB78_7
.LBB78_4:                               //   in Loop: Header=BB78_1 Depth=1
// %bb.5:                               //   in Loop: Header=BB78_1 Depth=1
	ldr	x8, [sp]
	ldr	x8, [x8, #48]
	str	x8, [sp]
	b	.LBB78_1
.LBB78_6:
	ldr	x8, [sp, #8]
	ldr	x9, [sp]
	str	x8, [x9, #48]
	ldr	x8, [sp, #8]
	str	xzr, [x8, #48]
	ldr	x8, [sp]
	ldr	x9, [sp, #8]
	str	x8, [x9, #56]
	str	wzr, [sp, #28]
.LBB78_7:
	ldr	w0, [sp, #28]
	add	sp, sp, #32                     // =32
	ret
.Lfunc_end78:
	.size	add_block_count_list, .Lfunc_end78-add_block_count_list
	.cfi_endproc
                                        // -- End function
	.globl	del_block_count_list            // -- Begin function del_block_count_list
	.p2align	2
	.type	del_block_count_list,@function
del_block_count_list:                   // @del_block_count_list
	.cfi_startproc
// %bb.0:
	sub	sp, sp, #16                     // =16
	.cfi_def_cfa_offset 16
	str	x0, [sp, #8]
	ldr	x8, [sp, #8]
	add	x8, x8, #400                    // =400
	str	x8, [sp]
	ldr	x8, [sp]
	ldr	x8, [x8, #48]
	cbz	x8, .LBB79_2
// %bb.1:
	ldr	x8, [sp]
	ldr	x8, [x8, #48]
	ldr	x8, [x8, #48]
	ldr	x9, [sp]
	str	x8, [x9, #48]
.LBB79_2:
	ldr	x0, [sp]
	add	sp, sp, #16                     // =16
	ret
.Lfunc_end79:
	.size	del_block_count_list, .Lfunc_end79-del_block_count_list
	.cfi_endproc
                                        // -- End function
	.globl	del_block_count_by_block        // -- Begin function del_block_count_by_block
	.p2align	2
	.type	del_block_count_by_block,@function
del_block_count_by_block:               // @del_block_count_by_block
	.cfi_startproc
// %bb.0:
	sub	sp, sp, #32                     // =32
	.cfi_def_cfa_offset 32
	str	x0, [sp, #24]
	str	x1, [sp, #16]
	ldr	x8, [sp, #24]
	add	x8, x8, #400                    // =400
	str	x8, [sp, #8]
	ldr	x8, [sp, #8]
	ldr	x8, [x8, #48]
	str	x8, [sp, #8]
.LBB80_1:                               // =>This Inner Loop Header: Depth=1
	ldr	x8, [sp, #8]
	cbz	x8, .LBB80_8
// %bb.2:                               //   in Loop: Header=BB80_1 Depth=1
	ldr	x8, [sp, #8]
	ldr	x9, [sp, #16]
	subs	x8, x8, x9
	b.ne	.LBB80_6
// %bb.3:
	ldr	x8, [sp, #8]
	ldr	x8, [x8, #48]
	ldr	x9, [sp, #8]
	ldr	x9, [x9, #56]
	str	x8, [x9, #48]
	ldr	x8, [sp, #8]
	ldr	x8, [x8, #48]
	cbz	x8, .LBB80_5
// %bb.4:
	ldr	x8, [sp, #8]
	ldr	x8, [x8, #56]
	ldr	x9, [sp, #8]
	ldr	x9, [x9, #48]
	str	x8, [x9, #56]
.LBB80_5:
	ldr	x8, [sp, #8]
	str	xzr, [x8, #56]
	ldr	x8, [sp, #8]
	str	xzr, [x8, #48]
	b	.LBB80_8
.LBB80_6:                               //   in Loop: Header=BB80_1 Depth=1
// %bb.7:                               //   in Loop: Header=BB80_1 Depth=1
	ldr	x8, [sp, #8]
	ldr	x8, [x8, #48]
	str	x8, [sp, #8]
	b	.LBB80_1
.LBB80_8:
	ldr	x0, [sp, #8]
	add	sp, sp, #32                     // =32
	ret
.Lfunc_end80:
	.size	del_block_count_by_block, .Lfunc_end80-del_block_count_by_block
	.cfi_endproc
                                        // -- End function
	.globl	print_block_count_list          // -- Begin function print_block_count_list
	.p2align	2
	.type	print_block_count_list,@function
print_block_count_list:                 // @print_block_count_list
	.cfi_startproc
// %bb.0:
	sub	sp, sp, #32                     // =32
	stp	x29, x30, [sp, #16]             // 16-byte Folded Spill
	add	x29, sp, #16                    // =16
	.cfi_def_cfa w29, 16
	.cfi_offset w30, -8
	.cfi_offset w29, -16
	str	x0, [sp, #8]
	ldr	x8, [sp, #8]
	add	x8, x8, #400                    // =400
	str	x8, [sp]
	ldr	x8, [sp, #8]
	ldr	w8, [x8, #656]
	cbnz	w8, .LBB81_2
// %bb.1:
	b	.LBB81_6
.LBB81_2:
	adrp	x0, .L.str.49
	add	x0, x0, :lo12:.L.str.49
	bl	nand_print_dbg
	ldr	x8, [sp]
	ldr	x8, [x8, #48]
	str	x8, [sp]
.LBB81_3:                               // =>This Inner Loop Header: Depth=1
	ldr	x8, [sp]
	cbz	x8, .LBB81_6
// %bb.4:                               //   in Loop: Header=BB81_3 Depth=1
	ldr	x8, [sp]
	ldrh	w1, [x8]
	adrp	x0, .L.str.50
	add	x0, x0, :lo12:.L.str.50
	bl	nand_print_dbg
	ldr	x8, [sp]
	ldr	w1, [x8, #8]
	adrp	x0, .L.str.51
	add	x0, x0, :lo12:.L.str.51
	bl	nand_print_dbg
// %bb.5:                               //   in Loop: Header=BB81_3 Depth=1
	ldr	x8, [sp]
	ldr	x8, [x8, #48]
	str	x8, [sp]
	b	.LBB81_3
.LBB81_6:
	ldp	x29, x30, [sp, #16]             // 16-byte Folded Reload
	add	sp, sp, #32                     // =32
	ret
.Lfunc_end81:
	.size	print_block_count_list, .Lfunc_end81-print_block_count_list
	.cfi_endproc
                                        // -- End function
	.globl	put_phy_block_to_free_list      // -- Begin function put_phy_block_to_free_list
	.p2align	2
	.type	put_phy_block_to_free_list,@function
put_phy_block_to_free_list:             // @put_phy_block_to_free_list
	.cfi_startproc
// %bb.0:
	sub	sp, sp, #48                     // =48
	stp	x29, x30, [sp, #32]             // 16-byte Folded Spill
	add	x29, sp, #32                    // =32
	.cfi_def_cfa w29, 16
	.cfi_offset w30, -8
	.cfi_offset w29, -16
	stur	x0, [x29, #-8]
	str	x1, [sp, #16]
	ldr	x8, [sp, #16]
	str	xzr, [x8, #32]
	ldr	x8, [sp, #16]
	str	xzr, [x8, #40]
	ldur	x0, [x29, #-8]
	ldr	x1, [sp, #16]
	bl	add_free_list
	str	w0, [sp, #12]
	ldr	w8, [sp, #12]
	cbnz	w8, .LBB82_2
// %bb.1:
	ldur	x9, [x29, #-8]
	ldrh	w8, [x9, #30]
	add	w8, w8, #1                      // =1
	strh	w8, [x9, #30]
	b	.LBB82_3
.LBB82_2:
	adrp	x0, .L.str.52
	add	x0, x0, :lo12:.L.str.52
	bl	nand_print_dbg
.LBB82_3:
	ldr	w0, [sp, #12]
	ldp	x29, x30, [sp, #32]             // 16-byte Folded Reload
	add	sp, sp, #48                     // =48
	ret
.Lfunc_end82:
	.size	put_phy_block_to_free_list, .Lfunc_end82-put_phy_block_to_free_list
	.cfi_endproc
                                        // -- End function
	.globl	out_phy_block_from_free_list    // -- Begin function out_phy_block_from_free_list
	.p2align	2
	.type	out_phy_block_from_free_list,@function
out_phy_block_from_free_list:           // @out_phy_block_from_free_list
	.cfi_startproc
// %bb.0:
	sub	sp, sp, #32                     // =32
	stp	x29, x30, [sp, #16]             // 16-byte Folded Spill
	add	x29, sp, #16                    // =16
	.cfi_def_cfa w29, 16
	.cfi_offset w30, -8
	.cfi_offset w29, -16
	str	x0, [sp, #8]
	ldr	x0, [sp, #8]
	bl	del_free_list
	str	x0, [sp]
	ldr	x8, [sp]
	cbz	x8, .LBB83_4
// %bb.1:
	ldr	x8, [sp]
	str	xzr, [x8, #32]
	ldr	x8, [sp]
	str	xzr, [x8, #40]
	ldr	x8, [sp, #8]
	ldrh	w8, [x8, #30]
	subs	w8, w8, #0                      // =0
	b.le	.LBB83_3
// %bb.2:
	ldr	x9, [sp, #8]
	ldrh	w10, [x9, #30]
	mov	w8, #-1
	add	w8, w8, w10, uxth
	strh	w8, [x9, #30]
.LBB83_3:
.LBB83_4:
	ldr	x0, [sp]
	ldp	x29, x30, [sp, #16]             // 16-byte Folded Reload
	add	sp, sp, #32                     // =32
	ret
.Lfunc_end83:
	.size	out_phy_block_from_free_list, .Lfunc_end83-out_phy_block_from_free_list
	.cfi_endproc
                                        // -- End function
	.globl	out_phy_block_from_free_list_by_erase_time // -- Begin function out_phy_block_from_free_list_by_erase_time
	.p2align	2
	.type	out_phy_block_from_free_list_by_erase_time,@function
out_phy_block_from_free_list_by_erase_time: // @out_phy_block_from_free_list_by_erase_time
	.cfi_startproc
// %bb.0:
	sub	sp, sp, #64                     // =64
	stp	x29, x30, [sp, #48]             // 16-byte Folded Spill
	add	x29, sp, #48                    // =48
	.cfi_def_cfa w29, 16
	.cfi_offset w30, -8
	.cfi_offset w29, -16
	stur	x0, [x29, #-8]
	sturh	w1, [x29, #-10]
	str	xzr, [sp, #24]
	strh	wzr, [sp, #22]
	ldur	x8, [x29, #-8]
	add	x8, x8, #272                    // =272
	str	x8, [sp, #8]
	ldr	x8, [sp, #8]
	ldr	x8, [x8, #32]
	str	x8, [sp, #8]
.LBB84_1:                               // =>This Inner Loop Header: Depth=1
	ldr	x8, [sp, #8]
	cbz	x8, .LBB84_8
// %bb.2:                               //   in Loop: Header=BB84_1 Depth=1
	ldr	x8, [sp, #8]
	ldrh	w8, [x8, #6]
	ldurh	w9, [x29, #-10]
	subs	w8, w8, w9
	b.ge	.LBB84_6
// %bb.3:                               //   in Loop: Header=BB84_1 Depth=1
	ldr	x8, [sp, #8]
	ldrh	w8, [x8, #6]
	ldrh	w9, [sp, #22]
	subs	w8, w8, w9
	b.lt	.LBB84_5
// %bb.4:                               //   in Loop: Header=BB84_1 Depth=1
	ldr	x8, [sp, #8]
	ldrh	w8, [x8, #6]
	strh	w8, [sp, #22]
	ldr	x8, [sp, #8]
	str	x8, [sp, #24]
.LBB84_5:                               //   in Loop: Header=BB84_1 Depth=1
.LBB84_6:                               //   in Loop: Header=BB84_1 Depth=1
// %bb.7:                               //   in Loop: Header=BB84_1 Depth=1
	ldr	x8, [sp, #8]
	ldr	x8, [x8, #32]
	str	x8, [sp, #8]
	b	.LBB84_1
.LBB84_8:
	ldr	x8, [sp, #24]
	cbz	x8, .LBB84_10
// %bb.9:
	ldur	x0, [x29, #-8]
	ldr	x1, [sp, #24]
	bl	out_phy_block_from_free_list_by_block
	str	x0, [sp, #24]
.LBB84_10:
	ldr	x0, [sp, #24]
	ldp	x29, x30, [sp, #48]             // 16-byte Folded Reload
	add	sp, sp, #64                     // =64
	ret
.Lfunc_end84:
	.size	out_phy_block_from_free_list_by_erase_time, .Lfunc_end84-out_phy_block_from_free_list_by_erase_time
	.cfi_endproc
                                        // -- End function
	.globl	get_max_erase_time_from_free_list // -- Begin function get_max_erase_time_from_free_list
	.p2align	2
	.type	get_max_erase_time_from_free_list,@function
get_max_erase_time_from_free_list:      // @get_max_erase_time_from_free_list
	.cfi_startproc
// %bb.0:
	sub	sp, sp, #48                     // =48
	.cfi_def_cfa_offset 48
	str	x0, [sp, #32]
	strh	w1, [sp, #30]
	str	xzr, [sp, #16]
	strh	wzr, [sp, #14]
	ldr	x8, [sp, #32]
	add	x8, x8, #272                    // =272
	str	x8, [sp]
	ldr	x8, [sp]
	ldr	x8, [x8, #32]
	str	x8, [sp]
.LBB85_1:                               // =>This Inner Loop Header: Depth=1
	ldr	x8, [sp]
	cbz	x8, .LBB85_8
// %bb.2:                               //   in Loop: Header=BB85_1 Depth=1
	ldr	x8, [sp]
	ldrh	w8, [x8, #6]
	ldrh	w9, [sp, #30]
	subs	w8, w8, w9
	b.ge	.LBB85_6
// %bb.3:                               //   in Loop: Header=BB85_1 Depth=1
	ldr	x8, [sp]
	ldrh	w8, [x8, #6]
	ldrh	w9, [sp, #14]
	subs	w8, w8, w9
	b.lt	.LBB85_5
// %bb.4:                               //   in Loop: Header=BB85_1 Depth=1
	ldr	x8, [sp]
	ldrh	w8, [x8, #6]
	strh	w8, [sp, #14]
	ldr	x8, [sp]
	str	x8, [sp, #16]
.LBB85_5:                               //   in Loop: Header=BB85_1 Depth=1
.LBB85_6:                               //   in Loop: Header=BB85_1 Depth=1
// %bb.7:                               //   in Loop: Header=BB85_1 Depth=1
	ldr	x8, [sp]
	ldr	x8, [x8, #32]
	str	x8, [sp]
	b	.LBB85_1
.LBB85_8:
	ldr	x8, [sp, #16]
	cbz	x8, .LBB85_10
// %bb.9:
	ldr	x8, [sp, #16]
	ldrh	w8, [x8, #6]
	strh	w8, [sp, #46]
	b	.LBB85_11
.LBB85_10:
	mov	w8, #65535
	strh	w8, [sp, #46]
.LBB85_11:
	ldrh	w0, [sp, #46]
	add	sp, sp, #48                     // =48
	ret
.Lfunc_end85:
	.size	get_max_erase_time_from_free_list, .Lfunc_end85-get_max_erase_time_from_free_list
	.cfi_endproc
                                        // -- End function
	.globl	get_block_max_erase_time_from_invalid_list // -- Begin function get_block_max_erase_time_from_invalid_list
	.p2align	2
	.type	get_block_max_erase_time_from_invalid_list,@function
get_block_max_erase_time_from_invalid_list: // @get_block_max_erase_time_from_invalid_list
	.cfi_startproc
// %bb.0:
	sub	sp, sp, #48                     // =48
	.cfi_def_cfa_offset 48
	str	x0, [sp, #32]
	strh	w1, [sp, #30]
	str	xzr, [sp, #16]
	strh	wzr, [sp, #14]
	ldr	x8, [sp, #32]
	add	x8, x8, #336                    // =336
	str	x8, [sp]
	ldr	x8, [sp]
	ldr	x8, [x8, #16]
	str	x8, [sp]
.LBB86_1:                               // =>This Inner Loop Header: Depth=1
	ldr	x8, [sp]
	cbz	x8, .LBB86_8
// %bb.2:                               //   in Loop: Header=BB86_1 Depth=1
	ldr	x8, [sp]
	ldrh	w8, [x8, #6]
	ldrh	w9, [sp, #30]
	subs	w8, w8, w9
	b.ge	.LBB86_6
// %bb.3:                               //   in Loop: Header=BB86_1 Depth=1
	ldr	x8, [sp]
	ldrh	w8, [x8, #6]
	ldrh	w9, [sp, #14]
	subs	w8, w8, w9
	b.lt	.LBB86_5
// %bb.4:                               //   in Loop: Header=BB86_1 Depth=1
	ldr	x8, [sp]
	ldrh	w8, [x8, #6]
	strh	w8, [sp, #14]
	ldr	x8, [sp]
	str	x8, [sp, #16]
.LBB86_5:                               //   in Loop: Header=BB86_1 Depth=1
.LBB86_6:                               //   in Loop: Header=BB86_1 Depth=1
// %bb.7:                               //   in Loop: Header=BB86_1 Depth=1
	ldr	x8, [sp]
	ldr	x8, [x8, #16]
	str	x8, [sp]
	b	.LBB86_1
.LBB86_8:
	ldr	x8, [sp, #16]
	cbz	x8, .LBB86_10
// %bb.9:
	ldr	x8, [sp, #16]
	str	x8, [sp, #40]
	b	.LBB86_11
.LBB86_10:
	str	xzr, [sp, #40]
.LBB86_11:
	ldr	x0, [sp, #40]
	add	sp, sp, #48                     // =48
	ret
.Lfunc_end86:
	.size	get_block_max_erase_time_from_invalid_list, .Lfunc_end86-get_block_max_erase_time_from_invalid_list
	.cfi_endproc
                                        // -- End function
	.globl	get_block_max_count_from_invalid_list // -- Begin function get_block_max_count_from_invalid_list
	.p2align	2
	.type	get_block_max_count_from_invalid_list,@function
get_block_max_count_from_invalid_list:  // @get_block_max_count_from_invalid_list
	.cfi_startproc
// %bb.0:
	sub	sp, sp, #48                     // =48
	.cfi_def_cfa_offset 48
	str	x0, [sp, #32]
	str	xzr, [sp, #24]
	str	wzr, [sp, #20]
	ldr	x8, [sp, #32]
	add	x8, x8, #336                    // =336
	str	x8, [sp, #8]
	ldr	x8, [sp, #8]
	ldr	x8, [x8, #16]
	str	x8, [sp, #8]
.LBB87_1:                               // =>This Inner Loop Header: Depth=1
	ldr	x8, [sp, #8]
	cbz	x8, .LBB87_6
// %bb.2:                               //   in Loop: Header=BB87_1 Depth=1
	ldr	x8, [sp, #8]
	ldr	w8, [x8, #8]
	ldr	w9, [sp, #20]
	subs	w8, w8, w9
	b.lo	.LBB87_4
// %bb.3:                               //   in Loop: Header=BB87_1 Depth=1
	ldr	x8, [sp, #8]
	ldr	w8, [x8, #8]
	str	w8, [sp, #20]
	ldr	x8, [sp, #8]
	str	x8, [sp, #24]
.LBB87_4:                               //   in Loop: Header=BB87_1 Depth=1
// %bb.5:                               //   in Loop: Header=BB87_1 Depth=1
	ldr	x8, [sp, #8]
	ldr	x8, [x8, #16]
	str	x8, [sp, #8]
	b	.LBB87_1
.LBB87_6:
	ldr	x8, [sp, #24]
	cbz	x8, .LBB87_8
// %bb.7:
	ldr	x8, [sp, #24]
	str	x8, [sp, #40]
	b	.LBB87_9
.LBB87_8:
	str	xzr, [sp, #40]
.LBB87_9:
	ldr	x0, [sp, #40]
	add	sp, sp, #48                     // =48
	ret
.Lfunc_end87:
	.size	get_block_max_count_from_invalid_list, .Lfunc_end87-get_block_max_count_from_invalid_list
	.cfi_endproc
                                        // -- End function
	.globl	out_phy_block_from_used_list_by_block // -- Begin function out_phy_block_from_used_list_by_block
	.p2align	2
	.type	out_phy_block_from_used_list_by_block,@function
out_phy_block_from_used_list_by_block:  // @out_phy_block_from_used_list_by_block
	.cfi_startproc
// %bb.0:
	sub	sp, sp, #48                     // =48
	stp	x29, x30, [sp, #32]             // 16-byte Folded Spill
	add	x29, sp, #32                    // =32
	.cfi_def_cfa w29, 16
	.cfi_offset w30, -8
	.cfi_offset w29, -16
	stur	x0, [x29, #-8]
	str	x1, [sp, #16]
	ldur	x0, [x29, #-8]
	ldr	x1, [sp, #16]
	bl	del_block_count_by_block
	str	x0, [sp, #8]
	ldr	x0, [sp, #8]
	ldp	x29, x30, [sp, #32]             // 16-byte Folded Reload
	add	sp, sp, #48                     // =48
	ret
.Lfunc_end88:
	.size	out_phy_block_from_used_list_by_block, .Lfunc_end88-out_phy_block_from_used_list_by_block
	.cfi_endproc
                                        // -- End function
	.globl	phy_block_from_invalid_page_incr // -- Begin function phy_block_from_invalid_page_incr
	.p2align	2
	.type	phy_block_from_invalid_page_incr,@function
phy_block_from_invalid_page_incr:       // @phy_block_from_invalid_page_incr
	.cfi_startproc
// %bb.0:
	sub	sp, sp, #64                     // =64
	stp	x29, x30, [sp, #48]             // 16-byte Folded Spill
	add	x29, sp, #48                    // =48
	.cfi_def_cfa w29, 16
	.cfi_offset w30, -8
	.cfi_offset w29, -16
	stur	x0, [x29, #-16]
	str	x1, [sp, #24]
	ldr	x8, [sp, #24]
	ldr	x8, [x8, #16]
	cbnz	x8, .LBB89_5
// %bb.1:
	ldr	x8, [sp, #24]
	ldr	x8, [x8, #24]
	cbnz	x8, .LBB89_5
// %bb.2:
	ldr	x9, [sp, #24]
	ldrh	w8, [x9, #4]
	add	w8, w8, #1                      // =1
	strh	w8, [x9, #4]
	ldr	x8, [sp, #24]
	ldrh	w8, [x8, #4]
	ldur	x9, [x29, #-16]
	ldr	x9, [x9, #8]
	ldrh	w9, [x9, #20]
	subs	w8, w8, w9
	b.le	.LBB89_4
// %bb.3:
	ldr	x8, [sp, #24]
	ldrh	w1, [x8]
	ldr	x8, [sp, #24]
	ldrh	w2, [x8, #4]
	adrp	x0, .L.str.54
	add	x0, x0, :lo12:.L.str.54
	bl	nand_print_dbg
.LBB89_4:
	stur	wzr, [x29, #-4]
	b	.LBB89_17
.LBB89_5:
	ldr	x9, [sp, #24]
	ldrh	w8, [x9, #4]
	add	w8, w8, #1                      // =1
	strh	w8, [x9, #4]
	ldr	x8, [sp, #24]
	ldrh	w8, [x8, #4]
	ldur	x9, [x29, #-16]
	ldr	x9, [x9, #8]
	ldrh	w9, [x9, #20]
	subs	w8, w8, w9
	b.le	.LBB89_7
// %bb.6:
	adrp	x0, .L.str.55
	add	x0, x0, :lo12:.L.str.55
	bl	nand_print_dbg
.LBB89_7:
	ldr	x8, [sp, #24]
	ldr	x8, [x8, #24]
	str	x8, [sp, #16]
	ldr	x8, [sp, #24]
	str	x8, [sp, #8]
	ldr	x8, [sp, #16]
	ldur	x9, [x29, #-16]
	add	x9, x9, #336                    // =336
	subs	x8, x8, x9
	b.ne	.LBB89_9
// %bb.8:
	stur	wzr, [x29, #-4]
	b	.LBB89_17
.LBB89_9:
.LBB89_10:                              // =>This Inner Loop Header: Depth=1
	ldr	x8, [sp, #16]
	ldrh	w8, [x8, #4]
	ldr	x9, [sp, #8]
	ldrh	w9, [x9, #4]
	subs	w8, w8, w9
	b.ge	.LBB89_16
// %bb.11:                              //   in Loop: Header=BB89_10 Depth=1
	ldr	x8, [sp, #16]
	ldr	x8, [x8, #24]
	ldr	x9, [sp, #8]
	str	x8, [x9, #24]
	ldr	x8, [sp, #8]
	ldr	x9, [sp, #16]
	ldr	x9, [x9, #24]
	str	x8, [x9, #16]
	ldr	x8, [sp, #8]
	ldr	x8, [x8, #16]
	ldr	x9, [sp, #16]
	str	x8, [x9, #16]
	ldr	x8, [sp, #8]
	ldr	x8, [x8, #16]
	cbz	x8, .LBB89_13
// %bb.12:                              //   in Loop: Header=BB89_10 Depth=1
	ldr	x8, [sp, #16]
	ldr	x9, [sp, #8]
	ldr	x9, [x9, #16]
	str	x8, [x9, #24]
.LBB89_13:                              //   in Loop: Header=BB89_10 Depth=1
	ldr	x8, [sp, #16]
	ldr	x9, [sp, #8]
	str	x8, [x9, #16]
	ldr	x8, [sp, #8]
	ldr	x9, [sp, #16]
	str	x8, [x9, #24]
	ldr	x8, [sp, #8]
	ldr	x8, [x8, #24]
	str	x8, [sp, #16]
	ldr	x8, [sp, #16]
	ldr	x8, [x8, #24]
	cbnz	x8, .LBB89_15
// %bb.14:
	b	.LBB89_16
.LBB89_15:                              //   in Loop: Header=BB89_10 Depth=1
	b	.LBB89_10
.LBB89_16:
	stur	wzr, [x29, #-4]
.LBB89_17:
	ldur	w0, [x29, #-4]
	ldp	x29, x30, [sp, #48]             // 16-byte Folded Reload
	add	sp, sp, #64                     // =64
	ret
.Lfunc_end89:
	.size	phy_block_from_invalid_page_incr, .Lfunc_end89-phy_block_from_invalid_page_incr
	.cfi_endproc
                                        // -- End function
	.globl	nftl_sector_cache_init          // -- Begin function nftl_sector_cache_init
	.p2align	2
	.type	nftl_sector_cache_init,@function
nftl_sector_cache_init:                 // @nftl_sector_cache_init
	.cfi_startproc
// %bb.0:
	sub	sp, sp, #64                     // =64
	stp	x29, x30, [sp, #48]             // 16-byte Folded Spill
	add	x29, sp, #48                    // =48
	.cfi_def_cfa w29, 16
	.cfi_offset w30, -8
	.cfi_offset w29, -16
	stur	x0, [x29, #-16]
	ldur	x8, [x29, #-16]
	add	x8, x8, #2880                   // =2880
	str	x8, [sp, #8]
	ldr	x9, [sp, #8]
	mov	w8, #16
	strh	w8, [x9]
	ldr	x8, [sp, #8]
	strh	wzr, [x8, #2]
	ldr	x8, [sp, #8]
	str	xzr, [x8, #8]
	mov	w0, #8192
	bl	nftl_malloc
	ldr	x8, [sp, #8]
	str	x0, [x8, #8]
	ldr	x8, [sp, #8]
	ldr	x8, [x8, #8]
	cbnz	x8, .LBB90_2
// %bb.1:
	adrp	x0, .L.str.56
	add	x0, x0, :lo12:.L.str.56
	adrp	x1, .L__func__.nftl_sector_cache_init
	add	x1, x1, :lo12:.L__func__.nftl_sector_cache_init
	bl	nand_print
	mov	w8, #1
	stur	w8, [x29, #-4]
	b	.LBB90_7
.LBB90_2:
	ldr	x8, [sp, #8]
	str	xzr, [x8, #544]
	ldr	x8, [sp, #8]
	str	xzr, [x8, #552]
	ldr	x8, [sp, #8]
	ldr	x8, [x8, #8]
	str	x8, [sp, #16]
	stur	wzr, [x29, #-20]
.LBB90_3:                               // =>This Inner Loop Header: Depth=1
	ldur	w8, [x29, #-20]
	subs	w8, w8, #16                     // =16
	b.hs	.LBB90_6
// %bb.4:                               //   in Loop: Header=BB90_3 Depth=1
	ldur	w8, [x29, #-20]
	ldr	x9, [sp, #8]
	add	x9, x9, #16                     // =16
	ldur	w10, [x29, #-20]
                                        // kill: def $x10 killed $w10
	add	x9, x9, x10, lsl #5
	strh	w8, [x9]
	ldr	x8, [sp, #8]
	add	x8, x8, #16                     // =16
	ldur	w9, [x29, #-20]
                                        // kill: def $x9 killed $w9
	add	x9, x8, x9, lsl #5
	mov	w8, #255
	strh	w8, [x9, #2]
	ldr	x8, [sp, #8]
	add	x8, x8, #16                     // =16
	ldur	w9, [x29, #-20]
                                        // kill: def $x9 killed $w9
	add	x9, x8, x9, lsl #5
	mov	w8, #-1
	str	w8, [x9, #4]
	ldr	x8, [sp, #8]
	add	x8, x8, #16                     // =16
	ldur	w9, [x29, #-20]
                                        // kill: def $x9 killed $w9
	add	x8, x8, x9, lsl #5
	str	xzr, [x8, #16]
	ldr	x8, [sp, #8]
	add	x8, x8, #16                     // =16
	ldur	w9, [x29, #-20]
                                        // kill: def $x9 killed $w9
	add	x8, x8, x9, lsl #5
	str	xzr, [x8, #24]
	ldr	x8, [sp, #16]
	ldr	x9, [sp, #8]
	add	x9, x9, #16                     // =16
	ldur	w10, [x29, #-20]
                                        // kill: def $x10 killed $w10
	add	x9, x9, x10, lsl #5
	str	x8, [x9, #8]
	ldr	x8, [sp, #16]
	add	x8, x8, #512                    // =512
	str	x8, [sp, #16]
// %bb.5:                               //   in Loop: Header=BB90_3 Depth=1
	ldur	w8, [x29, #-20]
	add	w8, w8, #1                      // =1
	stur	w8, [x29, #-20]
	b	.LBB90_3
.LBB90_6:
	stur	wzr, [x29, #-4]
.LBB90_7:
	ldur	w0, [x29, #-4]
	ldp	x29, x30, [sp, #48]             // 16-byte Folded Reload
	add	sp, sp, #64                     // =64
	ret
.Lfunc_end90:
	.size	nftl_sector_cache_init, .Lfunc_end90-nftl_sector_cache_init
	.cfi_endproc
                                        // -- End function
	.globl	nftl_sector_cache_exit          // -- Begin function nftl_sector_cache_exit
	.p2align	2
	.type	nftl_sector_cache_exit,@function
nftl_sector_cache_exit:                 // @nftl_sector_cache_exit
	.cfi_startproc
// %bb.0:
	sub	sp, sp, #32                     // =32
	stp	x29, x30, [sp, #16]             // 16-byte Folded Spill
	add	x29, sp, #16                    // =16
	.cfi_def_cfa w29, 16
	.cfi_offset w30, -8
	.cfi_offset w29, -16
	str	x0, [sp, #8]
	ldr	x8, [sp, #8]
	add	x8, x8, #2880                   // =2880
	str	x8, [sp]
	ldr	x8, [sp]
	ldr	x0, [x8, #8]
	bl	nftl_free
	mov	w0, wzr
	ldp	x29, x30, [sp, #16]             // 16-byte Folded Reload
	add	sp, sp, #32                     // =32
	ret
.Lfunc_end91:
	.size	nftl_sector_cache_exit, .Lfunc_end91-nftl_sector_cache_exit
	.cfi_endproc
                                        // -- End function
	.globl	search_from_sector_cache_write_list // -- Begin function search_from_sector_cache_write_list
	.p2align	2
	.type	search_from_sector_cache_write_list,@function
search_from_sector_cache_write_list:    // @search_from_sector_cache_write_list
	.cfi_startproc
// %bb.0:
	sub	sp, sp, #32                     // =32
	.cfi_def_cfa_offset 32
	str	x0, [sp, #16]
	str	w1, [sp, #12]
	ldr	x8, [sp, #16]
	add	x8, x8, #528                    // =528
	str	x8, [sp]
	ldr	x8, [sp]
	ldr	x8, [x8, #16]
	str	x8, [sp]
.LBB92_1:                               // =>This Inner Loop Header: Depth=1
	ldr	x8, [sp]
	cbz	x8, .LBB92_6
// %bb.2:                               //   in Loop: Header=BB92_1 Depth=1
	ldr	x8, [sp]
	ldr	w8, [x8, #4]
	ldr	w9, [sp, #12]
	subs	w8, w8, w9
	b.ne	.LBB92_4
// %bb.3:
	ldr	x8, [sp]
	str	x8, [sp, #24]
	b	.LBB92_7
.LBB92_4:                               //   in Loop: Header=BB92_1 Depth=1
// %bb.5:                               //   in Loop: Header=BB92_1 Depth=1
	ldr	x8, [sp]
	ldr	x8, [x8, #16]
	str	x8, [sp]
	b	.LBB92_1
.LBB92_6:
	str	xzr, [sp, #24]
.LBB92_7:
	ldr	x0, [sp, #24]
	add	sp, sp, #32                     // =32
	ret
.Lfunc_end92:
	.size	search_from_sector_cache_write_list, .Lfunc_end92-search_from_sector_cache_write_list
	.cfi_endproc
                                        // -- End function
	.globl	get_empty_sector_cahce_node     // -- Begin function get_empty_sector_cahce_node
	.p2align	2
	.type	get_empty_sector_cahce_node,@function
get_empty_sector_cahce_node:            // @get_empty_sector_cahce_node
	.cfi_startproc
// %bb.0:
	sub	sp, sp, #32                     // =32
	.cfi_def_cfa_offset 32
	str	x0, [sp, #16]
	strh	wzr, [sp, #14]
.LBB93_1:                               // =>This Inner Loop Header: Depth=1
	ldrh	w8, [sp, #14]
	subs	w8, w8, #16                     // =16
	b.ge	.LBB93_6
// %bb.2:                               //   in Loop: Header=BB93_1 Depth=1
	ldr	x8, [sp, #16]
	add	x8, x8, #16                     // =16
	ldrh	w9, [sp, #14]
                                        // kill: def $x9 killed $w9
	add	x8, x8, x9, lsl #5
	ldrh	w8, [x8, #2]
	subs	w8, w8, #255                    // =255
	b.ne	.LBB93_4
// %bb.3:
	ldr	x8, [sp, #16]
	add	x8, x8, #16                     // =16
	ldrh	w9, [sp, #14]
                                        // kill: def $x9 killed $w9
	add	x8, x8, x9, lsl #5
	str	x8, [sp, #24]
	b	.LBB93_7
.LBB93_4:                               //   in Loop: Header=BB93_1 Depth=1
// %bb.5:                               //   in Loop: Header=BB93_1 Depth=1
	ldrh	w8, [sp, #14]
	add	w8, w8, #1                      // =1
	strh	w8, [sp, #14]
	b	.LBB93_1
.LBB93_6:
	str	xzr, [sp, #24]
.LBB93_7:
	ldr	x0, [sp, #24]
	add	sp, sp, #32                     // =32
	ret
.Lfunc_end93:
	.size	get_empty_sector_cahce_node, .Lfunc_end93-get_empty_sector_cahce_node
	.cfi_endproc
                                        // -- End function
	.globl	add_to_sector_cache_write_list_tail // -- Begin function add_to_sector_cache_write_list_tail
	.p2align	2
	.type	add_to_sector_cache_write_list_tail,@function
add_to_sector_cache_write_list_tail:    // @add_to_sector_cache_write_list_tail
	.cfi_startproc
// %bb.0:
	sub	sp, sp, #32                     // =32
	.cfi_def_cfa_offset 32
	str	x0, [sp, #24]
	str	x1, [sp, #16]
	ldr	x8, [sp, #24]
	add	x8, x8, #528                    // =528
	str	x8, [sp, #8]
.LBB94_1:                               // =>This Inner Loop Header: Depth=1
	ldr	x8, [sp, #8]
	ldr	x8, [x8, #16]
	cbz	x8, .LBB94_3
// %bb.2:                               //   in Loop: Header=BB94_1 Depth=1
	ldr	x8, [sp, #8]
	ldr	x8, [x8, #16]
	str	x8, [sp, #8]
	b	.LBB94_1
.LBB94_3:
	ldr	x8, [sp, #16]
	ldr	x9, [sp, #8]
	str	x8, [x9, #16]
	ldr	x8, [sp, #16]
	str	xzr, [x8, #16]
	ldr	x8, [sp, #8]
	ldr	x9, [sp, #16]
	str	x8, [x9, #24]
	ldr	x9, [sp, #16]
	mov	w8, #1
	strh	w8, [x9, #2]
	ldr	x9, [sp, #24]
	ldrh	w8, [x9, #2]
	add	w8, w8, #1                      // =1
	strh	w8, [x9, #2]
	mov	w0, wzr
	add	sp, sp, #32                     // =32
	ret
.Lfunc_end94:
	.size	add_to_sector_cache_write_list_tail, .Lfunc_end94-add_to_sector_cache_write_list_tail
	.cfi_endproc
                                        // -- End function
	.globl	del_from_sector_cache_write_list // -- Begin function del_from_sector_cache_write_list
	.p2align	2
	.type	del_from_sector_cache_write_list,@function
del_from_sector_cache_write_list:       // @del_from_sector_cache_write_list
	.cfi_startproc
// %bb.0:
	sub	sp, sp, #32                     // =32
	.cfi_def_cfa_offset 32
	str	x0, [sp, #24]
	str	x1, [sp, #16]
	ldr	x8, [sp, #16]
	ldr	x8, [x8, #24]
	str	x8, [sp, #8]
	ldr	x8, [sp, #16]
	ldr	x8, [x8, #16]
	ldr	x9, [sp, #8]
	str	x8, [x9, #16]
	ldr	x8, [sp, #16]
	ldr	x8, [x8, #16]
	cbz	x8, .LBB95_2
// %bb.1:
	ldr	x8, [sp, #8]
	ldr	x9, [sp, #16]
	ldr	x9, [x9, #16]
	str	x8, [x9, #24]
.LBB95_2:
	ldr	x8, [sp, #16]
	str	xzr, [x8, #16]
	ldr	x8, [sp, #16]
	str	xzr, [x8, #24]
	ldr	x9, [sp, #16]
	mov	w8, #255
	strh	w8, [x9, #2]
	ldr	x9, [sp, #24]
	ldrh	w8, [x9, #2]
	subs	w8, w8, #1                      // =1
	strh	w8, [x9, #2]
	ldr	x0, [sp, #16]
	add	sp, sp, #32                     // =32
	ret
.Lfunc_end95:
	.size	del_from_sector_cache_write_list, .Lfunc_end95-del_from_sector_cache_write_list
	.cfi_endproc
                                        // -- End function
	.globl	__nand_sector_read              // -- Begin function __nand_sector_read
	.p2align	2
	.type	__nand_sector_read,@function
__nand_sector_read:                     // @__nand_sector_read
	.cfi_startproc
// %bb.0:
	sub	sp, sp, #64                     // =64
	stp	x29, x30, [sp, #48]             // 16-byte Folded Spill
	add	x29, sp, #48                    // =48
	.cfi_def_cfa w29, 16
	.cfi_offset w30, -8
	.cfi_offset w29, -16
	stur	x0, [x29, #-8]
	stur	w1, [x29, #-12]
	stur	w2, [x29, #-16]
	str	x3, [sp, #24]
	str	wzr, [sp, #20]
	ldur	w8, [x29, #-12]
	str	w8, [sp, #12]
	ldr	x8, [sp, #24]
	str	x8, [sp]
	str	wzr, [sp, #16]
.LBB96_1:                               // =>This Inner Loop Header: Depth=1
	ldr	w8, [sp, #16]
	ldur	w9, [x29, #-16]
	subs	w8, w8, w9
	b.hs	.LBB96_4
// %bb.2:                               //   in Loop: Header=BB96_1 Depth=1
	ldur	x0, [x29, #-8]
	ldr	w1, [sp, #12]
	ldr	x2, [sp]
	bl	nand_sector_cache_read
	ldr	w8, [sp, #20]
	orr	w8, w8, w0
	str	w8, [sp, #20]
	ldr	w8, [sp, #12]
	add	w8, w8, #1                      // =1
	str	w8, [sp, #12]
	ldr	x8, [sp]
	add	x8, x8, #512                    // =512
	str	x8, [sp]
// %bb.3:                               //   in Loop: Header=BB96_1 Depth=1
	ldr	w8, [sp, #16]
	add	w8, w8, #1                      // =1
	str	w8, [sp, #16]
	b	.LBB96_1
.LBB96_4:
	ldr	w0, [sp, #20]
	ldp	x29, x30, [sp, #48]             // 16-byte Folded Reload
	add	sp, sp, #64                     // =64
	ret
.Lfunc_end96:
	.size	__nand_sector_read, .Lfunc_end96-__nand_sector_read
	.cfi_endproc
                                        // -- End function
	.globl	nand_sector_cache_read          // -- Begin function nand_sector_cache_read
	.p2align	2
	.type	nand_sector_cache_read,@function
nand_sector_cache_read:                 // @nand_sector_cache_read
	.cfi_startproc
// %bb.0:
	sub	sp, sp, #80                     // =80
	stp	x29, x30, [sp, #64]             // 16-byte Folded Spill
	add	x29, sp, #64                    // =64
	.cfi_def_cfa w29, 16
	.cfi_offset w30, -8
	.cfi_offset w29, -16
	stur	x0, [x29, #-16]
	stur	w1, [x29, #-20]
	str	x2, [sp, #32]
	mov	w8, #512
	str	w8, [sp, #24]
	ldur	x8, [x29, #-16]
	add	x8, x8, #2880                   // =2880
	str	x8, [sp, #8]
	ldr	x0, [sp, #8]
	ldur	w1, [x29, #-20]
	bl	search_from_sector_cache_write_list
	str	x0, [sp, #16]
	ldr	x8, [sp, #16]
	cbz	x8, .LBB97_2
// %bb.1:
	ldr	x0, [sp, #32]
	ldr	x8, [sp, #16]
	ldr	x1, [x8, #8]
	ldr	w2, [sp, #24]
	bl	nand_memcpy
	stur	wzr, [x29, #-4]
	b	.LBB97_5
.LBB97_2:
	ldur	x0, [x29, #-16]
	ldur	w1, [x29, #-20]
	ldr	x3, [sp, #32]
	mov	w2, #1
	bl	__nand_read
	str	w0, [sp, #28]
	ldr	w8, [sp, #28]
	cbz	w8, .LBB97_4
// %bb.3:
	adrp	x0, .L.str.57
	add	x0, x0, :lo12:.L.str.57
	bl	nand_print
	mov	w8, #1
	stur	w8, [x29, #-4]
	b	.LBB97_5
.LBB97_4:
	ldr	w8, [sp, #28]
	stur	w8, [x29, #-4]
.LBB97_5:
	ldur	w0, [x29, #-4]
	ldp	x29, x30, [sp, #64]             // 16-byte Folded Reload
	add	sp, sp, #80                     // =80
	ret
.Lfunc_end97:
	.size	nand_sector_cache_read, .Lfunc_end97-nand_sector_cache_read
	.cfi_endproc
                                        // -- End function
	.globl	__nand_sector_write             // -- Begin function __nand_sector_write
	.p2align	2
	.type	__nand_sector_write,@function
__nand_sector_write:                    // @__nand_sector_write
	.cfi_startproc
// %bb.0:
	sub	sp, sp, #64                     // =64
	stp	x29, x30, [sp, #48]             // 16-byte Folded Spill
	add	x29, sp, #48                    // =48
	.cfi_def_cfa w29, 16
	.cfi_offset w30, -8
	.cfi_offset w29, -16
	stur	x0, [x29, #-8]
	stur	w1, [x29, #-12]
	stur	w2, [x29, #-16]
	str	x3, [sp, #24]
	str	wzr, [sp, #20]
	ldur	w8, [x29, #-12]
	str	w8, [sp, #12]
	ldr	x8, [sp, #24]
	str	x8, [sp]
	str	wzr, [sp, #16]
.LBB98_1:                               // =>This Inner Loop Header: Depth=1
	ldr	w8, [sp, #16]
	ldur	w9, [x29, #-16]
	subs	w8, w8, w9
	b.hs	.LBB98_4
// %bb.2:                               //   in Loop: Header=BB98_1 Depth=1
	ldur	x0, [x29, #-8]
	ldr	w1, [sp, #12]
	ldr	x2, [sp]
	bl	nand_sector_cache_write
	ldr	w8, [sp, #20]
	orr	w8, w8, w0
	str	w8, [sp, #20]
	ldr	w8, [sp, #12]
	add	w8, w8, #1                      // =1
	str	w8, [sp, #12]
	ldr	x8, [sp]
	add	x8, x8, #512                    // =512
	str	x8, [sp]
// %bb.3:                               //   in Loop: Header=BB98_1 Depth=1
	ldr	w8, [sp, #16]
	add	w8, w8, #1                      // =1
	str	w8, [sp, #16]
	b	.LBB98_1
.LBB98_4:
	ldr	w0, [sp, #20]
	ldp	x29, x30, [sp, #48]             // 16-byte Folded Reload
	add	sp, sp, #64                     // =64
	ret
.Lfunc_end98:
	.size	__nand_sector_write, .Lfunc_end98-__nand_sector_write
	.cfi_endproc
                                        // -- End function
	.globl	nand_sector_cache_write         // -- Begin function nand_sector_cache_write
	.p2align	2
	.type	nand_sector_cache_write,@function
nand_sector_cache_write:                // @nand_sector_cache_write
	.cfi_startproc
// %bb.0:
	sub	sp, sp, #80                     // =80
	stp	x29, x30, [sp, #64]             // 16-byte Folded Spill
	add	x29, sp, #64                    // =64
	.cfi_def_cfa w29, 16
	.cfi_offset w30, -8
	.cfi_offset w29, -16
	stur	x0, [x29, #-16]
	stur	w1, [x29, #-20]
	str	x2, [sp, #32]
	str	wzr, [sp, #28]
	strh	wzr, [sp, #26]
	ldur	x8, [x29, #-16]
	add	x8, x8, #2880                   // =2880
	str	x8, [sp, #8]
	mov	w8, #512
	strh	w8, [sp, #26]
	ldr	x0, [sp, #8]
	ldur	w1, [x29, #-20]
	bl	search_from_sector_cache_write_list
	str	x0, [sp, #16]
	ldr	x8, [sp, #16]
	cbz	x8, .LBB99_2
// %bb.1:
	ldr	x0, [sp, #8]
	ldr	x1, [sp, #16]
	bl	del_from_sector_cache_write_list
	ldr	x8, [sp, #16]
	ldr	x0, [x8, #8]
	ldr	x1, [sp, #32]
	ldrh	w2, [sp, #26]
	bl	nand_memcpy
	ldr	x0, [sp, #8]
	ldr	x1, [sp, #16]
	bl	add_to_sector_cache_write_list_tail
	stur	wzr, [x29, #-4]
	b	.LBB99_10
.LBB99_2:
	ldr	x8, [sp, #8]
	ldrh	w8, [x8, #2]
	subs	w8, w8, #8                      // =8
	b.lt	.LBB99_6
// %bb.3:
	ldr	x0, [sp, #8]
	ldr	x8, [sp, #8]
	ldr	x1, [x8, #544]
	bl	del_from_sector_cache_write_list
	str	x0, [sp, #16]
	ldur	x0, [x29, #-16]
	ldr	x8, [sp, #16]
	ldr	w1, [x8, #4]
	ldr	x8, [sp, #16]
	ldr	x3, [x8, #8]
	mov	w2, #1
	bl	__nand_write
	str	w0, [sp, #28]
	ldr	w8, [sp, #28]
	cbz	w8, .LBB99_5
// %bb.4:
	adrp	x0, .L.str.58
	add	x0, x0, :lo12:.L.str.58
	bl	nand_print
	mov	w8, #1
	stur	w8, [x29, #-4]
	b	.LBB99_10
.LBB99_5:
	b	.LBB99_9
.LBB99_6:
	ldr	x0, [sp, #8]
	bl	get_empty_sector_cahce_node
	str	x0, [sp, #16]
	ldr	x8, [sp, #16]
	cbnz	x8, .LBB99_8
// %bb.7:
	adrp	x0, .L.str.59
	add	x0, x0, :lo12:.L.str.59
	bl	nand_print
	mov	w8, #1
	stur	w8, [x29, #-4]
	b	.LBB99_10
.LBB99_8:
.LBB99_9:
	ldur	w8, [x29, #-20]
	ldr	x9, [sp, #16]
	str	w8, [x9, #4]
	ldr	x8, [sp, #16]
	ldr	x0, [x8, #8]
	ldr	x1, [sp, #32]
	ldrh	w2, [sp, #26]
	bl	nand_memcpy
	ldr	x0, [sp, #8]
	ldr	x1, [sp, #16]
	bl	add_to_sector_cache_write_list_tail
	stur	wzr, [x29, #-4]
.LBB99_10:
	ldur	w0, [x29, #-4]
	ldp	x29, x30, [sp, #64]             // 16-byte Folded Reload
	add	sp, sp, #80                     // =80
	ret
.Lfunc_end99:
	.size	nand_sector_cache_write, .Lfunc_end99-nand_sector_cache_write
	.cfi_endproc
                                        // -- End function
	.globl	__nand_read                     // -- Begin function __nand_read
	.p2align	2
	.type	__nand_read,@function
__nand_read:                            // @__nand_read
	.cfi_startproc
// %bb.0:
	sub	sp, sp, #48                     // =48
	stp	x29, x30, [sp, #32]             // 16-byte Folded Spill
	add	x29, sp, #32                    // =32
	.cfi_def_cfa w29, 16
	.cfi_offset w30, -8
	.cfi_offset w29, -16
	stur	x0, [x29, #-8]
	stur	w1, [x29, #-12]
	str	w2, [sp, #16]
	str	x3, [sp, #8]
	ldur	x8, [x29, #-8]
	ldr	w8, [x8, #656]
	subs	w8, w8, #3                      // =3
	b.ne	.LBB100_2
// %bb.1:
	ldur	w1, [x29, #-12]
	ldr	w2, [sp, #16]
	adrp	x0, .L.str.297
	add	x0, x0, :lo12:.L.str.297
	bl	nand_print_dbg
.LBB100_2:
	ldr	w8, [sp, #16]
	mov	w10, w8
	ldur	x8, [x29, #-8]
	ldr	x9, [x8, #3440]
	ldr	x8, [x9, #64]
	add	x8, x8, x10
	str	x8, [x9, #64]
	ldur	x1, [x29, #-8]
	ldur	w2, [x29, #-12]
	ldr	w3, [sp, #16]
	ldr	x4, [sp, #8]
	mov	w0, wzr
	bl	nand_op
	str	w0, [sp, #4]
	ldr	w0, [sp, #4]
	ldp	x29, x30, [sp, #32]             // 16-byte Folded Reload
	add	sp, sp, #48                     // =48
	ret
.Lfunc_end100:
	.size	__nand_read, .Lfunc_end100-__nand_read
	.cfi_endproc
                                        // -- End function
	.globl	__nand_write                    // -- Begin function __nand_write
	.p2align	2
	.type	__nand_write,@function
__nand_write:                           // @__nand_write
	.cfi_startproc
// %bb.0:
	sub	sp, sp, #48                     // =48
	stp	x29, x30, [sp, #32]             // 16-byte Folded Spill
	add	x29, sp, #32                    // =32
	.cfi_def_cfa w29, 16
	.cfi_offset w30, -8
	.cfi_offset w29, -16
	stur	x0, [x29, #-8]
	stur	w1, [x29, #-12]
	str	w2, [sp, #16]
	str	x3, [sp, #8]
	ldur	x8, [x29, #-8]
	ldr	w8, [x8, #656]
	subs	w8, w8, #3                      // =3
	b.ne	.LBB101_2
// %bb.1:
	ldur	w1, [x29, #-12]
	ldr	w2, [sp, #16]
	adrp	x0, .L.str.298
	add	x0, x0, :lo12:.L.str.298
	bl	nand_print_dbg
.LBB101_2:
	ldr	w8, [sp, #16]
	mov	w10, w8
	ldur	x8, [x29, #-8]
	ldr	x9, [x8, #3440]
	ldr	x8, [x9, #72]
	add	x8, x8, x10
	str	x8, [x9, #72]
	ldur	x1, [x29, #-8]
	ldur	w2, [x29, #-12]
	ldr	w3, [sp, #16]
	ldr	x4, [sp, #8]
	mov	w0, #1
	bl	nand_op
	str	w0, [sp, #4]
	ldr	w0, [sp, #4]
	ldp	x29, x30, [sp, #32]             // 16-byte Folded Reload
	add	sp, sp, #48                     // =48
	ret
.Lfunc_end101:
	.size	__nand_write, .Lfunc_end101-__nand_write
	.cfi_endproc
                                        // -- End function
	.globl	__nand_flush_sector_write_cache // -- Begin function __nand_flush_sector_write_cache
	.p2align	2
	.type	__nand_flush_sector_write_cache,@function
__nand_flush_sector_write_cache:        // @__nand_flush_sector_write_cache
	.cfi_startproc
// %bb.0:
	sub	sp, sp, #64                     // =64
	stp	x29, x30, [sp, #48]             // 16-byte Folded Spill
	add	x29, sp, #48                    // =48
	.cfi_def_cfa w29, 16
	.cfi_offset w30, -8
	.cfi_offset w29, -16
	stur	x0, [x29, #-8]
	stur	w1, [x29, #-12]
	ldur	x8, [x29, #-8]
	add	x8, x8, #2880                   // =2880
	str	x8, [sp, #8]
	stur	wzr, [x29, #-16]
	ldr	x8, [sp, #8]
	ldrh	w8, [x8, #2]
	cbz	w8, .LBB102_2
// %bb.1:
	mov	w8, #1
	stur	w8, [x29, #-20]
	b	.LBB102_3
.LBB102_2:
	stur	wzr, [x29, #-20]
.LBB102_3:
.LBB102_4:                              // =>This Inner Loop Header: Depth=1
	ldr	x8, [sp, #8]
	ldr	x8, [x8, #544]
	cbz	x8, .LBB102_8
// %bb.5:                               //   in Loop: Header=BB102_4 Depth=1
	ldr	x0, [sp, #8]
	ldr	x8, [sp, #8]
	ldr	x1, [x8, #544]
	bl	del_from_sector_cache_write_list
	str	x0, [sp, #16]
	ldur	x0, [x29, #-8]
	ldr	x8, [sp, #16]
	ldr	w1, [x8, #4]
	ldr	x8, [sp, #16]
	ldr	x3, [x8, #8]
	mov	w2, #1
	bl	__nand_write
	stur	w0, [x29, #-16]
	ldur	w8, [x29, #-12]
	subs	w8, w8, #1                      // =1
	stur	w8, [x29, #-12]
	ldur	w8, [x29, #-12]
	cbnz	w8, .LBB102_7
// %bb.6:
	b	.LBB102_8
.LBB102_7:                              //   in Loop: Header=BB102_4 Depth=1
	b	.LBB102_4
.LBB102_8:
	ldur	w8, [x29, #-16]
	cbz	w8, .LBB102_10
// %bb.9:
	adrp	x0, .L.str.60
	add	x0, x0, :lo12:.L.str.60
	bl	nand_print
.LBB102_10:
	ldur	w8, [x29, #-20]
	cbz	w8, .LBB102_12
// %bb.11:
.LBB102_12:
	ldur	w0, [x29, #-16]
	ldp	x29, x30, [sp, #48]             // 16-byte Folded Reload
	add	sp, sp, #64                     // =64
	ret
.Lfunc_end102:
	.size	__nand_flush_sector_write_cache, .Lfunc_end102-__nand_flush_sector_write_cache
	.cfi_endproc
                                        // -- End function
	.globl	nand_crc16                      // -- Begin function nand_crc16
	.p2align	2
	.type	nand_crc16,@function
nand_crc16:                             // @nand_crc16
	.cfi_startproc
// %bb.0:
	sub	sp, sp, #48                     // =48
	stp	x29, x30, [sp, #32]             // 16-byte Folded Spill
	add	x29, sp, #32                    // =32
	.cfi_def_cfa w29, 16
	.cfi_offset w30, -8
	.cfi_offset w29, -16
	sturh	w0, [x29, #-2]
	str	x1, [sp, #16]
	str	w2, [sp, #12]
.LBB103_1:                              // =>This Inner Loop Header: Depth=1
	ldr	w8, [sp, #12]
	subs	w9, w8, #1                      // =1
	str	w9, [sp, #12]
	cbz	w8, .LBB103_3
// %bb.2:                               //   in Loop: Header=BB103_1 Depth=1
	ldurh	w0, [x29, #-2]
	ldr	x8, [sp, #16]
	add	x9, x8, #1                      // =1
	str	x9, [sp, #16]
	ldrb	w1, [x8]
	bl	nand_crc16_byte
	sturh	w0, [x29, #-2]
	b	.LBB103_1
.LBB103_3:
	ldurh	w0, [x29, #-2]
	ldp	x29, x30, [sp, #32]             // 16-byte Folded Reload
	add	sp, sp, #48                     // =48
	ret
.Lfunc_end103:
	.size	nand_crc16, .Lfunc_end103-nand_crc16
	.cfi_endproc
                                        // -- End function
	.p2align	2                               // -- Begin function nand_crc16_byte
	.type	nand_crc16_byte,@function
nand_crc16_byte:                        // @nand_crc16_byte
	.cfi_startproc
// %bb.0:
	sub	sp, sp, #16                     // =16
	.cfi_def_cfa_offset 16
	strh	w0, [sp, #14]
	strb	w1, [sp, #13]
	ldrh	w9, [sp, #14]
	ldrh	w8, [sp, #14]
	ldrb	w10, [sp, #13]
	eor	w8, w8, w10
	and	w10, w8, #0xff
	adrp	x8, nand_crc16_table
	add	x8, x8, :lo12:nand_crc16_table
	ldrh	w8, [x8, w10, uxtw #1]
	eor	w0, w8, w9, asr #8
	add	sp, sp, #16                     // =16
	ret
.Lfunc_end104:
	.size	nand_crc16_byte, .Lfunc_end104-nand_crc16_byte
	.cfi_endproc
                                        // -- End function
	.globl	_nftl_nand_write_logic_page     // -- Begin function _nftl_nand_write_logic_page
	.p2align	2
	.type	_nftl_nand_write_logic_page,@function
_nftl_nand_write_logic_page:            // @_nftl_nand_write_logic_page
	.cfi_startproc
// %bb.0:
	sub	sp, sp, #48                     // =48
	stp	x29, x30, [sp, #32]             // 16-byte Folded Spill
	add	x29, sp, #32                    // =32
	.cfi_def_cfa w29, 16
	.cfi_offset w30, -8
	.cfi_offset w29, -16
	str	x0, [sp, #16]
	str	w1, [sp, #12]
	str	x2, [sp]
	ldr	x0, [sp, #16]
	ldr	w1, [sp, #12]
	ldr	x2, [sp]
	bl	nand_write_logic_page_no_gc
	cbz	w0, .LBB105_2
// %bb.1:
	ldr	w1, [sp, #12]
	adrp	x0, .L.str.61
	add	x0, x0, :lo12:.L.str.61
	bl	nand_print
	mov	w8, #1
	stur	w8, [x29, #-4]
	b	.LBB105_3
.LBB105_2:
	ldr	x0, [sp, #16]
	bl	garbage_collect
	ldr	x0, [sp, #16]
	bl	all_time_gc
	ldr	x0, [sp, #16]
	bl	do_prio_gc
	stur	wzr, [x29, #-4]
.LBB105_3:
	ldur	w0, [x29, #-4]
	ldp	x29, x30, [sp, #32]             // 16-byte Folded Reload
	add	sp, sp, #48                     // =48
	ret
.Lfunc_end105:
	.size	_nftl_nand_write_logic_page, .Lfunc_end105-_nftl_nand_write_logic_page
	.cfi_endproc
                                        // -- End function
	.globl	_nftl_nand_read_logic_page      // -- Begin function _nftl_nand_read_logic_page
	.p2align	2
	.type	_nftl_nand_read_logic_page,@function
_nftl_nand_read_logic_page:             // @_nftl_nand_read_logic_page
	.cfi_startproc
// %bb.0:
	sub	sp, sp, #128                    // =128
	stp	x29, x30, [sp, #112]            // 16-byte Folded Spill
	add	x29, sp, #112                   // =112
	.cfi_def_cfa w29, 16
	.cfi_offset w30, -8
	.cfi_offset w29, -16
	stur	x0, [x29, #-16]
	stur	w1, [x29, #-20]
	stur	x2, [x29, #-32]
	ldur	x0, [x29, #-16]
	ldur	w1, [x29, #-20]
	bl	get_logic_page_map
	str	x0, [sp, #48]
	ldr	x8, [sp, #48]
	cbnz	x8, .LBB106_2
// %bb.1:
	adrp	x0, .L.str.62
	add	x0, x0, :lo12:.L.str.62
	bl	nand_print_dbg
	mov	w8, #1
	stur	w8, [x29, #-4]
	b	.LBB106_7
.LBB106_2:
	ldr	x8, [sp, #48]
	ldrh	w8, [x8, #2]
	mov	w9, #65535
	subs	w8, w8, w9
	b.ne	.LBB106_4
// %bb.3:
	ldur	x0, [x29, #-32]
	ldur	x8, [x29, #-16]
	ldr	x8, [x8, #8]
	ldrh	w2, [x8, #26]
	mov	w1, #-1
	bl	nand_memset
	stur	wzr, [x29, #-4]
	b	.LBB106_7
.LBB106_4:
	ldur	x8, [x29, #-16]
	ldr	w10, [x8, #664]
	ldr	x9, [sp, #48]
	ldrh	w8, [x9]
	and	w10, w10, #0x1
	lsl	w10, w10, #12
	and	w8, w8, #0xffffefff
	orr	w8, w8, w10
	strh	w8, [x9]
	ldr	x8, [sp, #48]
	ldrh	w1, [x8, #2]
	ldr	x8, [sp, #48]
	ldrh	w8, [x8]
	and	w2, w8, #0xfff
	ldur	x8, [x29, #-16]
	ldr	x8, [x8, #8]
	ldrh	w3, [x8, #28]
	ldur	x4, [x29, #-32]
	add	x0, sp, #24                     // =24
	str	x0, [sp, #8]                    // 8-byte Folded Spill
	sub	x5, x29, #52                    // =52
	bl	set_physic_op_par
	ldr	x1, [sp, #8]                    // 8-byte Folded Reload
	ldur	x8, [x29, #-16]
	ldr	x8, [x8, #3472]
	ldur	x0, [x29, #-16]
	blr	x8
	stur	w0, [x29, #-36]
	ldur	w8, [x29, #-36]
	adds	w8, w8, #2                      // =2
	b.ne	.LBB106_6
// %bb.5:
	ldur	x0, [x29, #-16]
	ldr	x8, [sp, #48]
	ldrh	w1, [x8, #2]
	bl	get_phy_block_addr
	str	x0, [sp, #16]
	ldur	x0, [x29, #-16]
	ldr	x1, [sp, #16]
	mov	w2, #1
	bl	add_prio_gc
	ldur	w1, [x29, #-20]
	adrp	x0, .L.str.63
	add	x0, x0, :lo12:.L.str.63
	bl	nand_print
.LBB106_6:
	ldur	x0, [x29, #-16]
	bl	do_prio_gc
	ldur	w8, [x29, #-36]
	stur	w8, [x29, #-4]
.LBB106_7:
	ldur	w0, [x29, #-4]
	ldp	x29, x30, [sp, #112]            // 16-byte Folded Reload
	add	sp, sp, #128                    // =128
	ret
.Lfunc_end106:
	.size	_nftl_nand_read_logic_page, .Lfunc_end106-_nftl_nand_read_logic_page
	.cfi_endproc
                                        // -- End function
	.globl	_nftl_discard_logic_page        // -- Begin function _nftl_discard_logic_page
	.p2align	2
	.type	_nftl_discard_logic_page,@function
_nftl_discard_logic_page:               // @_nftl_discard_logic_page
	.cfi_startproc
// %bb.0:
	sub	sp, sp, #32                     // =32
	stp	x29, x30, [sp, #16]             // 16-byte Folded Spill
	add	x29, sp, #16                    // =16
	.cfi_def_cfa w29, 16
	.cfi_offset w30, -8
	.cfi_offset w29, -16
	str	x0, [sp, #8]
	str	w1, [sp, #4]
	ldr	x0, [sp, #8]
	ldr	w2, [sp, #4]
	mov	w1, #4369
	movk	w1, #43537, lsl #16
	mov	x3, xzr
	bl	write_data_to_page
	str	w0, [sp]
	ldr	w0, [sp]
	ldp	x29, x30, [sp, #16]             // 16-byte Folded Reload
	add	sp, sp, #32                     // =32
	ret
.Lfunc_end107:
	.size	_nftl_discard_logic_page, .Lfunc_end107-_nftl_discard_logic_page
	.cfi_endproc
                                        // -- End function
	.globl	write_data_to_page              // -- Begin function write_data_to_page
	.p2align	2
	.type	write_data_to_page,@function
write_data_to_page:                     // @write_data_to_page
	.cfi_startproc
// %bb.0:
	sub	sp, sp, #48                     // =48
	stp	x29, x30, [sp, #32]             // 16-byte Folded Spill
	add	x29, sp, #32                    // =32
	.cfi_def_cfa w29, 16
	.cfi_offset w30, -8
	.cfi_offset w29, -16
	str	x0, [sp, #16]
	str	w1, [sp, #12]
	str	w2, [sp, #8]
	str	x3, [sp]
	ldr	x0, [sp, #16]
	ldr	x8, [sp, #16]
	add	x1, x8, #528                    // =528
	ldr	w2, [sp, #12]
	ldr	w3, [sp, #8]
	ldr	x4, [sp]
	bl	write_logic_data_to_current_block
	cbz	w0, .LBB108_2
// %bb.1:
	adrp	x0, .L.str.76
	add	x0, x0, :lo12:.L.str.76
	bl	nand_print
	mov	w8, #1
	stur	w8, [x29, #-4]
	b	.LBB108_7
.LBB108_2:
	ldr	x8, [sp, #16]
	ldrb	w8, [x8, #25]
	tbz	w8, #0, .LBB108_6
// %bb.3:
	ldr	x0, [sp, #16]
	ldr	x8, [sp, #16]
	add	x1, x8, #592                    // =592
	ldr	w2, [sp, #12]
	ldr	w3, [sp, #8]
	ldr	x4, [sp]
	bl	write_logic_data_to_current_block
	cbz	w0, .LBB108_5
// %bb.4:
	adrp	x0, .L.str.76
	add	x0, x0, :lo12:.L.str.76
	bl	nand_print
	mov	w8, #1
	stur	w8, [x29, #-4]
	b	.LBB108_7
.LBB108_5:
.LBB108_6:
	stur	wzr, [x29, #-4]
.LBB108_7:
	ldur	w0, [x29, #-4]
	ldp	x29, x30, [sp, #32]             // 16-byte Folded Reload
	add	sp, sp, #48                     // =48
	ret
.Lfunc_end108:
	.size	write_data_to_page, .Lfunc_end108-write_data_to_page
	.cfi_endproc
                                        // -- End function
	.globl	do_write_error                  // -- Begin function do_write_error
	.p2align	2
	.type	do_write_error,@function
do_write_error:                         // @do_write_error
	.cfi_startproc
// %bb.0:
	sub	sp, sp, #112                    // =112
	stp	x29, x30, [sp, #96]             // 16-byte Folded Spill
	add	x29, sp, #96                    // =96
	.cfi_def_cfa w29, 16
	.cfi_offset w30, -8
	.cfi_offset w29, -16
	stur	x0, [x29, #-16]
	stur	x1, [x29, #-24]
.LBB109_1:                              // =>This Loop Header: Depth=1
                                        //     Child Loop BB109_8 Depth 2
	ldur	x0, [x29, #-16]
	bl	out_phy_block_from_free_list
	str	x0, [sp, #48]
	ldr	x8, [sp, #48]
	cbnz	x8, .LBB109_3
// %bb.2:
	adrp	x0, .L.str.64
	add	x0, x0, :lo12:.L.str.64
	bl	nand_print
	mov	w8, #1
	stur	w8, [x29, #-4]
	b	.LBB109_25
.LBB109_3:                              //   in Loop: Header=BB109_1 Depth=1
	ldr	x8, [sp, #48]
	ldrh	w1, [x8]
	ldur	x8, [x29, #-16]
	ldr	x8, [x8, #8]
	ldrh	w3, [x8, #28]
	add	x0, sp, #24                     // =24
	str	x0, [sp, #8]                    // 8-byte Folded Spill
	mov	w2, wzr
	mov	x5, xzr
	mov	x4, x5
	bl	set_physic_op_par
	ldr	x1, [sp, #8]                    // 8-byte Folded Reload
	ldur	x8, [x29, #-16]
	ldr	x8, [x8, #3464]
	ldur	x0, [x29, #-16]
	blr	x8
	stur	w0, [x29, #-28]
	ldr	x8, [sp, #48]
	strh	wzr, [x8, #4]
	ldr	x9, [sp, #48]
	ldrh	w8, [x9, #6]
	add	w8, w8, #1                      // =1
	strh	w8, [x9, #6]
	ldur	w8, [x29, #-28]
	cbz	w8, .LBB109_7
// %bb.4:                               //   in Loop: Header=BB109_1 Depth=1
	ldur	x8, [x29, #-16]
	ldr	x8, [x8, #3504]
	ldur	x0, [x29, #-16]
	add	x1, sp, #24                     // =24
	blr	x8
	ldr	x8, [sp, #48]
	ldrh	w1, [x8]
	adrp	x0, .L.str.65
	add	x0, x0, :lo12:.L.str.65
	bl	nand_print
	ldur	x8, [x29, #-16]
	ldrh	w8, [x8, #30]
	ldur	x9, [x29, #-16]
	ldrh	w9, [x9, #680]
	subs	w8, w8, w9, asr #2
	b.le	.LBB109_6
// %bb.5:                               //   in Loop: Header=BB109_1 Depth=1
	b	.LBB109_1
.LBB109_6:
	adrp	x0, .L.str.64
	add	x0, x0, :lo12:.L.str.64
	bl	nand_print
	mov	w8, #1
	stur	w8, [x29, #-4]
	b	.LBB109_25
.LBB109_7:                              //   in Loop: Header=BB109_1 Depth=1
	ldur	x8, [x29, #-24]
	ldr	x8, [x8]
	ldr	w8, [x8, #8]
	add	w8, w8, #1                      // =1
	ldr	x9, [sp, #48]
	str	w8, [x9, #8]
	stur	wzr, [x29, #-32]
.LBB109_8:                              //   Parent Loop BB109_1 Depth=1
                                        // =>  This Inner Loop Header: Depth=2
	ldur	w8, [x29, #-32]
	ldur	x9, [x29, #-24]
	ldrh	w9, [x9, #56]
	subs	w8, w8, w9
	b.hs	.LBB109_16
// %bb.9:                               //   in Loop: Header=BB109_8 Depth=2
	ldur	x8, [x29, #-24]
	ldr	x8, [x8, #24]
	ldur	w9, [x29, #-32]
                                        // kill: def $x9 killed $w9
	ldr	w8, [x8, x9, lsl #2]
	stur	w8, [x29, #-36]
	ldur	w8, [x29, #-36]
	adds	w8, w8, #1                      // =1
	b.eq	.LBB109_13
// %bb.10:                              //   in Loop: Header=BB109_8 Depth=2
	ldur	x8, [x29, #-16]
	ldr	x8, [x8, #3488]
	ldur	x0, [x29, #-16]
	ldur	x9, [x29, #-24]
	ldr	x1, [x9]
	ldr	x2, [sp, #48]
	ldur	x9, [x29, #-16]
	ldr	x3, [x9, #512]
	ldur	w4, [x29, #-32]
	blr	x8
	stur	w0, [x29, #-28]
	ldur	w8, [x29, #-28]
	cbz	w8, .LBB109_12
// %bb.11:                              //   in Loop: Header=BB109_1 Depth=1
	ldr	x8, [sp, #48]
	ldrh	w1, [x8]
	adrp	x0, .L.str.66
	add	x0, x0, :lo12:.L.str.66
	bl	nand_print
	ldr	x8, [sp, #48]
	ldrh	w1, [x8]
	ldur	x8, [x29, #-16]
	ldr	x8, [x8, #8]
	ldrh	w3, [x8, #28]
	add	x0, sp, #24                     // =24
	str	x0, [sp]                        // 8-byte Folded Spill
	mov	w2, wzr
	mov	x5, xzr
	mov	x4, x5
	bl	set_physic_op_par
	ldr	x1, [sp]                        // 8-byte Folded Reload
	ldur	x8, [x29, #-16]
	ldr	x8, [x8, #3504]
	ldur	x0, [x29, #-16]
	blr	x8
	b	.LBB109_1
.LBB109_12:                             //   in Loop: Header=BB109_8 Depth=2
	b	.LBB109_14
.LBB109_13:
	b	.LBB109_16
.LBB109_14:                             //   in Loop: Header=BB109_8 Depth=2
// %bb.15:                              //   in Loop: Header=BB109_8 Depth=2
	ldur	w8, [x29, #-32]
	add	w8, w8, #1                      // =1
	stur	w8, [x29, #-32]
	b	.LBB109_8
.LBB109_16:
	ldur	x8, [x29, #-24]
	ldr	x8, [x8]
	ldrh	w8, [x8, #4]
	ldr	x9, [sp, #48]
	strh	w8, [x9, #4]
	ldur	x8, [x29, #-24]
	ldr	x8, [x8]
	ldrh	w1, [x8]
	ldur	x8, [x29, #-16]
	ldr	x8, [x8, #8]
	ldrh	w3, [x8, #28]
	add	x0, sp, #24                     // =24
	mov	w2, wzr
	mov	x5, xzr
	mov	x4, x5
	bl	set_physic_op_par
	ldur	x0, [x29, #-16]
	ldur	x8, [x29, #-24]
	ldr	x1, [x8]
	ldur	x8, [x29, #-24]
	ldr	x8, [x8]
	ldrh	w8, [x8, #6]
	add	w2, w8, #1                      // =1
	bl	erase_block
	ldur	x8, [x29, #-24]
	ldr	x8, [x8]
	ldrh	w8, [x8, #2]
	ldr	x9, [sp, #48]
	strh	w8, [x9, #2]
	ldr	x8, [sp, #48]
	ldur	x9, [x29, #-24]
	str	x8, [x9]
	stur	wzr, [x29, #-32]
.LBB109_17:                             // =>This Inner Loop Header: Depth=1
	ldur	w8, [x29, #-32]
	ldur	x9, [x29, #-24]
	ldrh	w9, [x9, #56]
	subs	w8, w8, w9
	b.hs	.LBB109_24
// %bb.18:                              //   in Loop: Header=BB109_17 Depth=1
	ldur	x8, [x29, #-24]
	ldr	x8, [x8, #24]
	ldur	w9, [x29, #-32]
                                        // kill: def $x9 killed $w9
	ldr	w8, [x8, x9, lsl #2]
	stur	w8, [x29, #-36]
	ldur	w8, [x29, #-36]
	adds	w8, w8, #1                      // =1
	b.eq	.LBB109_22
// %bb.19:                              //   in Loop: Header=BB109_17 Depth=1
	ldur	x0, [x29, #-16]
	ldur	w1, [x29, #-36]
	bl	get_logic_page_map
	str	x0, [sp, #16]
	ldr	x8, [sp, #16]
	cbz	x8, .LBB109_21
// %bb.20:                              //   in Loop: Header=BB109_17 Depth=1
	ldur	x8, [x29, #-24]
	ldr	x8, [x8]
	ldrh	w8, [x8]
	ldr	x9, [sp, #16]
	strh	w8, [x9, #2]
	ldur	w10, [x29, #-32]
	ldr	x9, [sp, #16]
	ldrh	w8, [x9]
	and	w10, w10, #0xfff
	and	w8, w8, #0xfffff000
	orr	w8, w8, w10
	strh	w8, [x9]
.LBB109_21:                             //   in Loop: Header=BB109_17 Depth=1
.LBB109_22:                             //   in Loop: Header=BB109_17 Depth=1
// %bb.23:                              //   in Loop: Header=BB109_17 Depth=1
	ldur	w8, [x29, #-32]
	add	w8, w8, #1                      // =1
	stur	w8, [x29, #-32]
	b	.LBB109_17
.LBB109_24:
	stur	wzr, [x29, #-4]
.LBB109_25:
	ldur	w0, [x29, #-4]
	ldp	x29, x30, [sp, #96]             // 16-byte Folded Reload
	add	sp, sp, #112                    // =112
	ret
.Lfunc_end109:
	.size	do_write_error, .Lfunc_end109-do_write_error
	.cfi_endproc
                                        // -- End function
	.globl	nand_write_data_page            // -- Begin function nand_write_data_page
	.p2align	2
	.type	nand_write_data_page,@function
nand_write_data_page:                   // @nand_write_data_page
	.cfi_startproc
// %bb.0:
	sub	sp, sp, #48                     // =48
	stp	x29, x30, [sp, #32]             // 16-byte Folded Spill
	add	x29, sp, #32                    // =32
	.cfi_def_cfa w29, 16
	.cfi_offset w30, -8
	.cfi_offset w29, -16
	str	x0, [sp, #16]
	str	w1, [sp, #12]
	str	w2, [sp, #8]
	str	x3, [sp]
	ldr	x0, [sp, #16]
	ldr	x8, [sp, #16]
	add	x1, x8, #528                    // =528
	bl	current_block_at_last_page
	subs	w8, w0, #1                      // =1
	b.ne	.LBB110_4
// %bb.1:
	ldr	x0, [sp, #16]
	bl	do_after_write
	cbz	w0, .LBB110_3
// %bb.2:
	adrp	x0, .L.str.67
	add	x0, x0, :lo12:.L.str.67
	bl	nand_print
	mov	w8, #1
	stur	w8, [x29, #-4]
	b	.LBB110_11
.LBB110_3:
.LBB110_4:
	ldr	x0, [sp, #16]
	bl	do_before_write
	cbz	w0, .LBB110_6
// %bb.5:
	adrp	x0, .L.str.68
	add	x0, x0, :lo12:.L.str.68
	bl	nand_print
	mov	w8, #1
	stur	w8, [x29, #-4]
	b	.LBB110_11
.LBB110_6:
	ldr	x0, [sp, #16]
	ldr	w1, [sp, #12]
	ldr	w2, [sp, #8]
	ldr	x3, [sp]
	bl	write_data_to_page
	cbz	w0, .LBB110_8
// %bb.7:
	adrp	x0, .L.str.69
	add	x0, x0, :lo12:.L.str.69
	bl	nand_print
	mov	w8, #1
	stur	w8, [x29, #-4]
	b	.LBB110_11
.LBB110_8:
	ldr	x0, [sp, #16]
	bl	do_after_write
	cbz	w0, .LBB110_10
// %bb.9:
	adrp	x0, .L.str.70
	add	x0, x0, :lo12:.L.str.70
	bl	nand_print
	mov	w8, #1
	stur	w8, [x29, #-4]
	b	.LBB110_11
.LBB110_10:
	stur	wzr, [x29, #-4]
.LBB110_11:
	ldur	w0, [x29, #-4]
	ldp	x29, x30, [sp, #32]             // 16-byte Folded Reload
	add	sp, sp, #48                     // =48
	ret
.Lfunc_end110:
	.size	nand_write_data_page, .Lfunc_end110-nand_write_data_page
	.cfi_endproc
                                        // -- End function
	.globl	current_block_at_last_page      // -- Begin function current_block_at_last_page
	.p2align	2
	.type	current_block_at_last_page,@function
current_block_at_last_page:             // @current_block_at_last_page
	.cfi_startproc
// %bb.0:
	sub	sp, sp, #32                     // =32
	.cfi_def_cfa_offset 32
	str	x0, [sp, #16]
	str	x1, [sp, #8]
	ldr	x8, [sp, #8]
	ldrh	w8, [x8, #56]
	ldr	x9, [sp, #16]
	ldr	x9, [x9, #8]
	ldrh	w9, [x9, #20]
	subs	w9, w9, #1                      // =1
	subs	w8, w8, w9
	b.ne	.LBB111_2
// %bb.1:
	mov	w8, #1
	str	w8, [sp, #28]
	b	.LBB111_3
.LBB111_2:
	str	wzr, [sp, #28]
.LBB111_3:
	ldr	w0, [sp, #28]
	add	sp, sp, #32                     // =32
	ret
.Lfunc_end111:
	.size	current_block_at_last_page, .Lfunc_end111-current_block_at_last_page
	.cfi_endproc
                                        // -- End function
	.globl	do_after_write                  // -- Begin function do_after_write
	.p2align	2
	.type	do_after_write,@function
do_after_write:                         // @do_after_write
	.cfi_startproc
// %bb.0:
	sub	sp, sp, #32                     // =32
	stp	x29, x30, [sp, #16]             // 16-byte Folded Spill
	add	x29, sp, #16                    // =16
	.cfi_def_cfa w29, 16
	.cfi_offset w30, -8
	.cfi_offset w29, -16
	str	x0, [sp]
	ldr	x0, [sp]
	ldr	x8, [sp]
	add	x1, x8, #528                    // =528
	bl	current_block_at_last_page
	subs	w8, w0, #1                      // =1
	b.ne	.LBB112_14
// %bb.1:
	ldr	x0, [sp]
	ldr	x8, [sp]
	add	x1, x8, #528                    // =528
	bl	write_phy_page_map_to_current_block
	cbz	w0, .LBB112_3
// %bb.2:
	adrp	x0, .L.str.73
	add	x0, x0, :lo12:.L.str.73
	bl	nand_print
	mov	w8, #1
	stur	w8, [x29, #-4]
	b	.LBB112_15
.LBB112_3:
	ldr	x8, [sp]
	ldrb	w8, [x8, #25]
	tbz	w8, #0, .LBB112_7
// %bb.4:
	ldr	x0, [sp]
	ldr	x8, [sp]
	add	x1, x8, #592                    // =592
	bl	write_phy_page_map_to_current_block
	cbz	w0, .LBB112_6
// %bb.5:
	adrp	x0, .L.str.73
	add	x0, x0, :lo12:.L.str.73
	bl	nand_print
.LBB112_6:
.LBB112_7:
	ldr	x0, [sp]
	ldr	x8, [sp]
	add	x1, x8, #528                    // =528
	bl	get_new_current_block
	cbz	w0, .LBB112_9
// %bb.8:
	adrp	x0, .L.str.74
	add	x0, x0, :lo12:.L.str.74
	bl	nand_print
	mov	w8, #1
	stur	w8, [x29, #-4]
	b	.LBB112_15
.LBB112_9:
	ldr	x8, [sp]
	ldrb	w8, [x8, #25]
	tbz	w8, #0, .LBB112_13
// %bb.10:
	ldr	x0, [sp]
	ldr	x8, [sp]
	add	x1, x8, #592                    // =592
	bl	get_new_current_block
	cbz	w0, .LBB112_12
// %bb.11:
	adrp	x0, .L.str.75
	add	x0, x0, :lo12:.L.str.75
	bl	nand_print
	mov	w8, #1
	stur	w8, [x29, #-4]
	b	.LBB112_15
.LBB112_12:
.LBB112_13:
	ldr	x9, [sp]
	ldr	w8, [x9, #668]
	add	w8, w8, #1                      // =1
	str	w8, [x9, #668]
.LBB112_14:
	stur	wzr, [x29, #-4]
.LBB112_15:
	ldur	w0, [x29, #-4]
	ldp	x29, x30, [sp, #16]             // 16-byte Folded Reload
	add	sp, sp, #32                     // =32
	ret
.Lfunc_end112:
	.size	do_after_write, .Lfunc_end112-do_after_write
	.cfi_endproc
                                        // -- End function
	.globl	do_before_write                 // -- Begin function do_before_write
	.p2align	2
	.type	do_before_write,@function
do_before_write:                        // @do_before_write
	.cfi_startproc
// %bb.0:
	sub	sp, sp, #32                     // =32
	stp	x29, x30, [sp, #16]             // 16-byte Folded Spill
	add	x29, sp, #16                    // =16
	.cfi_def_cfa w29, 16
	.cfi_offset w30, -8
	.cfi_offset w29, -16
	str	x0, [sp]
.LBB113_1:                              // =>This Inner Loop Header: Depth=1
	ldr	x0, [sp]
	ldr	x8, [sp]
	add	x1, x8, #528                    // =528
	bl	current_block_at_first_page
	subs	w8, w0, #1                      // =1
	b.ne	.LBB113_10
// %bb.2:                               //   in Loop: Header=BB113_1 Depth=1
	ldr	x0, [sp]
	ldr	x8, [sp]
	ldr	x1, [x8, #528]
	ldr	x8, [sp]
	ldr	x8, [x8, #528]
	ldr	w2, [x8, #8]
	bl	new_block_init_for_write
	cbz	w0, .LBB113_8
// %bb.3:                               //   in Loop: Header=BB113_1 Depth=1
	ldr	x8, [sp]
	ldr	x9, [x8, #528]
	ldr	w8, [x9, #8]
	subs	w8, w8, #1                      // =1
	str	w8, [x9, #8]
	ldr	x8, [sp]
	ldrb	w8, [x8, #25]
	tbz	w8, #0, .LBB113_5
// %bb.4:                               //   in Loop: Header=BB113_1 Depth=1
	ldr	x8, [sp]
	ldr	x9, [x8, #528]
	ldr	w8, [x9, #8]
	subs	w8, w8, #1                      // =1
	str	w8, [x9, #8]
.LBB113_5:                              //   in Loop: Header=BB113_1 Depth=1
	ldr	x0, [sp]
	ldr	x8, [sp]
	add	x1, x8, #528                    // =528
	bl	get_new_current_block
	cbz	w0, .LBB113_7
// %bb.6:
	adrp	x0, .L.str.71
	add	x0, x0, :lo12:.L.str.71
	bl	nand_print
	mov	w8, #1
	stur	w8, [x29, #-4]
	b	.LBB113_23
.LBB113_7:                              //   in Loop: Header=BB113_1 Depth=1
	b	.LBB113_9
.LBB113_8:
	b	.LBB113_10
.LBB113_9:                              //   in Loop: Header=BB113_1 Depth=1
	b	.LBB113_1
.LBB113_10:
	ldr	x8, [sp]
	ldrb	w8, [x8, #25]
	tbz	w8, #0, .LBB113_22
// %bb.11:
.LBB113_12:                             // =>This Inner Loop Header: Depth=1
	ldr	x0, [sp]
	ldr	x8, [sp]
	add	x1, x8, #592                    // =592
	bl	current_block_at_first_page
	cbz	w0, .LBB113_21
// %bb.13:                              //   in Loop: Header=BB113_12 Depth=1
	ldr	x0, [sp]
	ldr	x8, [sp]
	ldr	x1, [x8, #592]
	ldr	x8, [sp]
	ldr	x8, [x8, #592]
	ldr	w2, [x8, #8]
	bl	new_block_init_for_write
	cbz	w0, .LBB113_19
// %bb.14:                              //   in Loop: Header=BB113_12 Depth=1
	ldr	x8, [sp]
	ldr	x9, [x8, #592]
	ldr	w8, [x9, #8]
	subs	w8, w8, #1                      // =1
	str	w8, [x9, #8]
	ldr	x8, [sp]
	ldrb	w8, [x8, #25]
	tbz	w8, #0, .LBB113_16
// %bb.15:                              //   in Loop: Header=BB113_12 Depth=1
	ldr	x8, [sp]
	ldr	x9, [x8, #592]
	ldr	w8, [x9, #8]
	subs	w8, w8, #1                      // =1
	str	w8, [x9, #8]
.LBB113_16:                             //   in Loop: Header=BB113_12 Depth=1
	ldr	x0, [sp]
	ldr	x8, [sp]
	add	x1, x8, #592                    // =592
	bl	get_new_current_block
	cbz	w0, .LBB113_18
// %bb.17:
	adrp	x0, .L.str.72
	add	x0, x0, :lo12:.L.str.72
	bl	nand_print
	mov	w8, #1
	stur	w8, [x29, #-4]
	b	.LBB113_23
.LBB113_18:                             //   in Loop: Header=BB113_12 Depth=1
	b	.LBB113_20
.LBB113_19:
	b	.LBB113_21
.LBB113_20:                             //   in Loop: Header=BB113_12 Depth=1
	b	.LBB113_12
.LBB113_21:
.LBB113_22:
	stur	wzr, [x29, #-4]
.LBB113_23:
	ldur	w0, [x29, #-4]
	ldp	x29, x30, [sp, #16]             // 16-byte Folded Reload
	add	sp, sp, #32                     // =32
	ret
.Lfunc_end113:
	.size	do_before_write, .Lfunc_end113-do_before_write
	.cfi_endproc
                                        // -- End function
	.globl	current_block_at_first_page     // -- Begin function current_block_at_first_page
	.p2align	2
	.type	current_block_at_first_page,@function
current_block_at_first_page:            // @current_block_at_first_page
	.cfi_startproc
// %bb.0:
	sub	sp, sp, #32                     // =32
	.cfi_def_cfa_offset 32
	str	x0, [sp, #16]
	str	x1, [sp, #8]
	ldr	x8, [sp, #8]
	ldrh	w8, [x8, #56]
	cbnz	w8, .LBB114_2
// %bb.1:
	mov	w8, #1
	str	w8, [sp, #28]
	b	.LBB114_3
.LBB114_2:
	str	wzr, [sp, #28]
.LBB114_3:
	ldr	w0, [sp, #28]
	add	sp, sp, #32                     // =32
	ret
.Lfunc_end114:
	.size	current_block_at_first_page, .Lfunc_end114-current_block_at_first_page
	.cfi_endproc
                                        // -- End function
	.globl	new_block_init_for_write        // -- Begin function new_block_init_for_write
	.p2align	2
	.type	new_block_init_for_write,@function
new_block_init_for_write:               // @new_block_init_for_write
	.cfi_startproc
// %bb.0:
	sub	sp, sp, #80                     // =80
	stp	x29, x30, [sp, #64]             // 16-byte Folded Spill
	add	x29, sp, #64                    // =64
	.cfi_def_cfa w29, 16
	.cfi_offset w30, -8
	.cfi_offset w29, -16
	stur	x0, [x29, #-16]
	stur	x1, [x29, #-24]
	stur	w2, [x29, #-28]
	ldur	x8, [x29, #-24]
	ldrh	w1, [x8]
	ldur	x8, [x29, #-16]
	ldr	x8, [x8, #8]
	ldrh	w3, [x8, #28]
	add	x0, sp, #8                      // =8
	str	x0, [sp]                        // 8-byte Folded Spill
	mov	w2, wzr
	mov	x5, xzr
	mov	x4, x5
	bl	set_physic_op_par
	ldr	x1, [sp]                        // 8-byte Folded Reload
	ldur	x8, [x29, #-16]
	ldr	x8, [x8, #3464]
	ldur	x0, [x29, #-16]
	blr	x8
	str	w0, [sp, #32]
	ldur	x8, [x29, #-24]
	strh	wzr, [x8, #4]
	ldur	x9, [x29, #-24]
	ldrh	w8, [x9, #6]
	add	w8, w8, #1                      // =1
	strh	w8, [x9, #6]
	ldur	x8, [x29, #-24]
	ldrh	w8, [x8, #6]
	ldur	x9, [x29, #-16]
	ldr	w9, [x9, #676]
	subs	w8, w8, w9
	b.ls	.LBB115_3
// %bb.1:
	ldur	x8, [x29, #-24]
	ldrh	w8, [x8, #6]
	ldur	x9, [x29, #-16]
	ldr	x9, [x9, #8]
	ldrh	w9, [x9, #16]
	subs	w8, w8, w9
	b.ge	.LBB115_3
// %bb.2:
	ldur	x8, [x29, #-24]
	ldrh	w8, [x8, #6]
	ldur	x9, [x29, #-16]
	str	w8, [x9, #676]
.LBB115_3:
	ldur	w8, [x29, #-28]
	ldur	x9, [x29, #-24]
	str	w8, [x9, #8]
	ldr	w8, [sp, #32]
	cbz	w8, .LBB115_5
// %bb.4:
	ldur	x8, [x29, #-16]
	ldr	x8, [x8, #3504]
	ldur	x0, [x29, #-16]
	add	x1, sp, #8                      // =8
	blr	x8
	adrp	x0, .L.str.89
	add	x0, x0, :lo12:.L.str.89
	bl	nand_print
	mov	w8, #1
	stur	w8, [x29, #-4]
	b	.LBB115_6
.LBB115_5:
	stur	wzr, [x29, #-4]
.LBB115_6:
	ldur	w0, [x29, #-4]
	ldp	x29, x30, [sp, #64]             // 16-byte Folded Reload
	add	sp, sp, #80                     // =80
	ret
.Lfunc_end115:
	.size	new_block_init_for_write, .Lfunc_end115-new_block_init_for_write
	.cfi_endproc
                                        // -- End function
	.globl	get_new_current_block           // -- Begin function get_new_current_block
	.p2align	2
	.type	get_new_current_block,@function
get_new_current_block:                  // @get_new_current_block
	.cfi_startproc
// %bb.0:
	sub	sp, sp, #48                     // =48
	stp	x29, x30, [sp, #32]             // 16-byte Folded Spill
	add	x29, sp, #32                    // =32
	.cfi_def_cfa w29, 16
	.cfi_offset w30, -8
	.cfi_offset w29, -16
	str	x0, [sp, #16]
	str	x1, [sp, #8]
	ldr	x8, [sp, #8]
	ldr	x8, [x8]
	ldr	w8, [x8, #8]
	str	w8, [sp, #4]
	ldr	x8, [sp, #8]
	ldr	x0, [x8, #24]
	ldr	x8, [sp, #8]
	ldr	w2, [x8, #32]
	mov	w1, #-1
	bl	nand_memset
	ldr	x8, [sp, #16]
	ldrh	w8, [x8, #1062]
	cbz	w8, .LBB116_4
// %bb.1:
	ldr	x0, [sp, #16]
	ldr	x8, [sp, #16]
	ldr	x8, [x8, #8]
	ldrh	w1, [x8, #16]
	bl	out_phy_block_from_free_list_by_erase_time
	ldr	x8, [sp, #8]
	str	x0, [x8]
	ldr	x8, [sp, #8]
	ldr	x8, [x8]
	cbz	x8, .LBB116_3
// %bb.2:
	ldr	x8, [sp, #8]
	ldr	x8, [x8]
	ldrh	w1, [x8]
	ldr	x8, [sp, #8]
	ldr	x8, [x8]
	ldrh	w2, [x8, #6]
	adrp	x0, .L.str.87
	add	x0, x0, :lo12:.L.str.87
	bl	nand_print_dbg
.LBB116_3:
	b	.LBB116_5
.LBB116_4:
	ldr	x0, [sp, #16]
	bl	out_phy_block_from_free_list
	ldr	x8, [sp, #8]
	str	x0, [x8]
.LBB116_5:
	ldr	x8, [sp, #8]
	ldr	x8, [x8]
	cbnz	x8, .LBB116_7
// %bb.6:
	adrp	x0, .L.str.88
	add	x0, x0, :lo12:.L.str.88
	bl	nand_print
	mov	w8, #1
	stur	w8, [x29, #-4]
	b	.LBB116_10
.LBB116_7:
	ldr	x8, [sp, #8]
	strh	wzr, [x8, #56]
	ldr	w8, [sp, #4]
	add	w8, w8, #1                      // =1
	ldr	x9, [sp, #8]
	ldr	x9, [x9]
	str	w8, [x9, #8]
	ldr	x8, [sp, #16]
	ldrb	w8, [x8, #25]
	tbz	w8, #0, .LBB116_9
// %bb.8:
	ldr	x8, [sp, #8]
	ldr	x9, [x8]
	ldr	w8, [x9, #8]
	add	w8, w8, #1                      // =1
	str	w8, [x9, #8]
.LBB116_9:
	stur	wzr, [x29, #-4]
.LBB116_10:
	ldur	w0, [x29, #-4]
	ldp	x29, x30, [sp, #32]             // 16-byte Folded Reload
	add	sp, sp, #48                     // =48
	ret
.Lfunc_end116:
	.size	get_new_current_block, .Lfunc_end116-get_new_current_block
	.cfi_endproc
                                        // -- End function
	.globl	write_phy_page_map_to_current_block // -- Begin function write_phy_page_map_to_current_block
	.p2align	2
	.type	write_phy_page_map_to_current_block,@function
write_phy_page_map_to_current_block:    // @write_phy_page_map_to_current_block
	.cfi_startproc
// %bb.0:
	sub	sp, sp, #48                     // =48
	stp	x29, x30, [sp, #32]             // 16-byte Folded Spill
	add	x29, sp, #32                    // =32
	.cfi_def_cfa w29, 16
	.cfi_offset w30, -8
	.cfi_offset w29, -16
	str	x0, [sp, #16]
	str	x1, [sp, #8]
	ldr	x8, [sp, #8]
	ldr	x9, [sp, #16]
	add	x9, x9, #592                    // =592
	subs	x8, x8, x9
	b.ne	.LBB117_2
// %bb.1:
	ldr	x8, [sp, #16]
	ldr	x0, [x8, #632]
	ldr	x8, [sp, #16]
	ldr	x1, [x8, #568]
	mov	w2, #320
	bl	nand_memcpy
.LBB117_2:
	ldr	x0, [sp, #16]
	ldr	x1, [sp, #8]
	ldr	x8, [sp, #8]
	ldr	x2, [x8, #8]
	mov	w3, wzr
	mov	w4, #-1431633921
	bl	write_phy_data_to_current_block
	str	w0, [sp, #4]
	ldr	w8, [sp, #4]
	cbz	w8, .LBB117_4
// %bb.3:
	adrp	x0, .L.str.81
	add	x0, x0, :lo12:.L.str.81
	bl	nand_print
	ldr	w8, [sp, #4]
	stur	w8, [x29, #-4]
	b	.LBB117_7
.LBB117_4:
	ldr	x9, [sp, #8]
	ldrh	w8, [x9, #56]
	add	w8, w8, #1                      // =1
	strh	w8, [x9, #56]
	ldr	x8, [sp, #8]
	ldr	x9, [x8]
	ldrh	w8, [x9, #4]
	add	w8, w8, #1                      // =1
	strh	w8, [x9, #4]
	ldr	x0, [sp, #16]
	ldr	x8, [sp, #8]
	add	x1, x8, #8                      // =8
	ldr	x8, [sp, #8]
	ldr	x2, [x8]
	ldr	x8, [sp, #8]
	ldrh	w3, [x8, #56]
	bl	check_invalid_page_right
	ldr	x8, [sp, #8]
	ldrh	w8, [x8, #56]
	ldr	x9, [sp, #16]
	ldr	x9, [x9, #8]
	ldrh	w9, [x9, #20]
	subs	w8, w8, w9
	b.ne	.LBB117_6
// %bb.5:
	ldr	x0, [sp, #16]
	ldr	x8, [sp, #8]
	ldr	x1, [x8]
	bl	put_phy_block_to_invalid_page_list
	ldr	x0, [sp, #16]
	bl	adjust_invaild_list
.LBB117_6:
	stur	wzr, [x29, #-4]
.LBB117_7:
	ldur	w0, [x29, #-4]
	ldp	x29, x30, [sp, #32]             // 16-byte Folded Reload
	add	sp, sp, #48                     // =48
	ret
.Lfunc_end117:
	.size	write_phy_page_map_to_current_block, .Lfunc_end117-write_phy_page_map_to_current_block
	.cfi_endproc
                                        // -- End function
	.globl	write_logic_data_to_current_block // -- Begin function write_logic_data_to_current_block
	.p2align	2
	.type	write_logic_data_to_current_block,@function
write_logic_data_to_current_block:      // @write_logic_data_to_current_block
	.cfi_startproc
// %bb.0:
	sub	sp, sp, #80                     // =80
	stp	x29, x30, [sp, #64]             // 16-byte Folded Spill
	add	x29, sp, #64                    // =64
	.cfi_def_cfa w29, 16
	.cfi_offset w30, -8
	.cfi_offset w29, -16
	stur	x0, [x29, #-16]
	stur	x1, [x29, #-24]
	stur	w2, [x29, #-28]
	str	w3, [sp, #32]
	str	x4, [sp, #24]
	str	wzr, [sp, #16]
	ldur	w8, [x29, #-28]
	subs	w8, w8, #192                    // =192
	b.ne	.LBB118_13
// %bb.1:
	ldur	x0, [x29, #-16]
	ldr	w1, [sp, #32]
	bl	get_logic_page_map
	str	x0, [sp]
	ldr	x8, [sp]
	cbnz	x8, .LBB118_3
// %bb.2:
	adrp	x0, .L.str.82
	add	x0, x0, :lo12:.L.str.82
	bl	nand_print_dbg
	mov	w8, #1
	stur	w8, [x29, #-4]
	b	.LBB118_34
.LBB118_3:
	ldr	x8, [sp]
	ldrh	w8, [x8, #2]
	mov	w9, #65535
	subs	w8, w8, w9
	b.eq	.LBB118_10
// %bb.4:
	ldur	x0, [x29, #-16]
	ldr	x8, [sp]
	ldrh	w1, [x8, #2]
	bl	get_phy_block_addr
	str	x0, [sp, #8]
	ldr	x8, [sp, #8]
	ldur	x9, [x29, #-24]
	ldr	x9, [x9]
	subs	x8, x8, x9
	b.ne	.LBB118_8
// %bb.5:
	ldr	x9, [sp, #8]
	ldrh	w8, [x9, #4]
	add	w8, w8, #1                      // =1
	strh	w8, [x9, #4]
	ldr	x8, [sp, #8]
	ldrh	w8, [x8, #4]
	ldur	x9, [x29, #-16]
	ldr	x9, [x9, #8]
	ldrh	w9, [x9, #20]
	subs	w8, w8, w9
	b.le	.LBB118_7
// %bb.6:
	ldur	x8, [x29, #-24]
	ldrh	w1, [x8, #56]
	adrp	x0, .L.str.83
	add	x0, x0, :lo12:.L.str.83
	bl	nand_print_dbg
.LBB118_7:
	b	.LBB118_9
.LBB118_8:
	mov	w8, #1
	str	w8, [sp, #16]
.LBB118_9:
.LBB118_10:
	ldur	x0, [x29, #-16]
	ldur	x1, [x29, #-24]
	ldr	x2, [sp, #24]
	ldr	w3, [sp, #32]
	mov	w4, #192
	bl	write_phy_data_to_current_block
	str	w0, [sp, #20]
	ldr	w8, [sp, #20]
	cbz	w8, .LBB118_12
// %bb.11:
	adrp	x0, .L.str.84
	add	x0, x0, :lo12:.L.str.84
	bl	nand_print
	ldr	w8, [sp, #20]
	stur	w8, [x29, #-4]
	b	.LBB118_34
.LBB118_12:
	ldur	x8, [x29, #-24]
	ldr	x8, [x8]
	ldrh	w8, [x8]
	ldr	x9, [sp]
	strh	w8, [x9, #2]
	ldur	x8, [x29, #-24]
	ldrh	w10, [x8, #56]
	ldr	x9, [sp]
	ldrh	w8, [x9]
	mov	w11, #4095
	and	w10, w10, #0xfff
	and	w8, w8, #0xfffff000
	orr	w8, w8, w10
	strh	w8, [x9]
	ldur	x8, [x29, #-16]
	ldr	w8, [x8, #664]
	subs	w8, w8, #0                      // =0
	cset	w10, eq
	ldr	x9, [sp]
	ldrh	w8, [x9]
	and	w10, w10, #0x1
	lsl	w10, w10, #12
	and	w8, w8, #0xffffefff
	orr	w8, w8, w10
	strh	w8, [x9]
	ldr	w8, [sp, #32]
	ldur	x9, [x29, #-24]
	ldr	x9, [x9, #24]
	ldr	x10, [sp]
	ldrh	w10, [x10]
	and	w10, w10, w11
	lsl	w11, w10, #2
                                        // implicit-def: $x10
	mov	w10, w11
	and	x10, x10, #0xffff
	str	w8, [x9, x10]
	ldur	x9, [x29, #-24]
	ldrh	w8, [x9, #56]
	add	w8, w8, #1                      // =1
	strh	w8, [x9, #56]
	b	.LBB118_31
.LBB118_13:
	ldur	w8, [x29, #-28]
	mov	w9, #4369
	movk	w9, #43537, lsl #16
	subs	w8, w8, w9
	b.ne	.LBB118_24
// %bb.14:
	ldur	x0, [x29, #-16]
	ldr	w1, [sp, #32]
	bl	get_logic_page_map
	str	x0, [sp]
	ldr	x8, [sp]
	cbnz	x8, .LBB118_16
// %bb.15:
	adrp	x0, .L.str.82
	add	x0, x0, :lo12:.L.str.82
	bl	nand_print_dbg
	mov	w8, #1
	stur	w8, [x29, #-4]
	b	.LBB118_34
.LBB118_16:
	ldr	x8, [sp]
	ldrh	w8, [x8, #2]
	mov	w9, #65535
	subs	w8, w8, w9
	b.eq	.LBB118_23
// %bb.17:
	ldur	x0, [x29, #-16]
	ldr	x8, [sp]
	ldrh	w1, [x8, #2]
	bl	get_phy_block_addr
	str	x0, [sp, #8]
	ldr	x8, [sp, #8]
	ldur	x9, [x29, #-24]
	ldr	x9, [x9]
	subs	x8, x8, x9
	b.ne	.LBB118_21
// %bb.18:
	ldur	x8, [x29, #-24]
	ldr	x9, [x8, #24]
	ldr	x8, [sp]
	ldrh	w8, [x8]
	and	w8, w8, #0xfff
	lsl	w10, w8, #2
                                        // implicit-def: $x8
	mov	w8, w10
	and	x10, x8, #0xffff
	mov	w8, #-1
	str	w8, [x9, x10]
	ldr	x9, [sp, #8]
	ldrh	w8, [x9, #4]
	add	w8, w8, #1                      // =1
	strh	w8, [x9, #4]
	ldr	x8, [sp, #8]
	ldrh	w8, [x8, #4]
	ldur	x9, [x29, #-16]
	ldr	x9, [x9, #8]
	ldrh	w9, [x9, #20]
	subs	w8, w8, w9
	b.le	.LBB118_20
// %bb.19:
	ldur	x8, [x29, #-24]
	ldrh	w1, [x8, #56]
	adrp	x0, .L.str.85
	add	x0, x0, :lo12:.L.str.85
	bl	nand_print
.LBB118_20:
	b	.LBB118_22
.LBB118_21:
	mov	w8, #1
	str	w8, [sp, #16]
.LBB118_22:
.LBB118_23:
	ldr	x9, [sp]
	mov	w8, #65535
	strh	w8, [x9, #2]
	ldr	x9, [sp]
	ldrh	w8, [x9]
	and	w8, w8, #0xfffff000
	orr	w8, w8, #0xfff
	strh	w8, [x9]
	ldr	x9, [sp]
	ldrh	w8, [x9]
	and	w8, w8, #0xffffefff
	orr	w8, w8, #0x1000
	strh	w8, [x9]
	b	.LBB118_30
.LBB118_24:
	ldur	w8, [x29, #-28]
	mov	w9, #13107
	movk	w9, #43537, lsl #16
	subs	w8, w8, w9
	b.ne	.LBB118_28
// %bb.25:
	ldur	x8, [x29, #-24]
	ldr	x9, [x8]
	ldrh	w8, [x9, #4]
	add	w8, w8, #1                      // =1
	strh	w8, [x9, #4]
	ldur	x0, [x29, #-16]
	ldur	x1, [x29, #-24]
	ldr	x2, [sp, #24]
	ldr	w3, [sp, #32]
	mov	w4, #13107
	movk	w4, #43537, lsl #16
	bl	write_phy_data_to_current_block
	str	w0, [sp, #20]
	ldr	w8, [sp, #20]
	cbz	w8, .LBB118_27
// %bb.26:
	adrp	x0, .L.str.86
	add	x0, x0, :lo12:.L.str.86
	bl	nand_print
	ldr	w8, [sp, #20]
	stur	w8, [x29, #-4]
	b	.LBB118_34
.LBB118_27:
	ldur	x9, [x29, #-24]
	ldrh	w8, [x9, #56]
	add	w8, w8, #1                      // =1
	strh	w8, [x9, #56]
	b	.LBB118_29
.LBB118_28:
.LBB118_29:
.LBB118_30:
.LBB118_31:
	ldr	w8, [sp, #16]
	subs	w8, w8, #1                      // =1
	b.ne	.LBB118_33
// %bb.32:
	ldur	x0, [x29, #-16]
	ldr	x1, [sp, #8]
	bl	phy_block_from_invalid_page_incr
.LBB118_33:
	ldur	x0, [x29, #-16]
	bl	adjust_invaild_list
	stur	wzr, [x29, #-4]
.LBB118_34:
	ldur	w0, [x29, #-4]
	ldp	x29, x30, [sp, #64]             // 16-byte Folded Reload
	add	sp, sp, #80                     // =80
	ret
.Lfunc_end118:
	.size	write_logic_data_to_current_block, .Lfunc_end118-write_logic_data_to_current_block
	.cfi_endproc
                                        // -- End function
	.globl	write_phy_data_to_current_block // -- Begin function write_phy_data_to_current_block
	.p2align	2
	.type	write_phy_data_to_current_block,@function
write_phy_data_to_current_block:        // @write_phy_data_to_current_block
	.cfi_startproc
// %bb.0:
	sub	sp, sp, #112                    // =112
	stp	x29, x30, [sp, #96]             // 16-byte Folded Spill
	add	x29, sp, #96                    // =96
	.cfi_def_cfa w29, 16
	.cfi_offset w30, -8
	.cfi_offset w29, -16
	stur	x0, [x29, #-16]
	stur	x1, [x29, #-24]
	stur	x2, [x29, #-32]
	stur	w3, [x29, #-36]
	stur	w4, [x29, #-40]
	strh	wzr, [sp, #6]
	strh	wzr, [sp, #4]
	add	x0, sp, #32                     // =32
	mov	w1, #-91
	mov	w2, #16
	bl	nand_memset
	ldur	x8, [x29, #-16]
	ldr	x8, [x8, #8]
	ldrb	w8, [x8, #8]
	lsl	w8, w8, #9
	strh	w8, [sp, #4]
	ldur	w8, [x29, #-40]
	mov	w9, #-1431633921
	subs	w8, w8, w9
	b.ne	.LBB119_2
// %bb.1:
	ldur	x8, [x29, #-16]
	ldr	w8, [x8, #560]
	strh	w8, [sp, #4]
.LBB119_2:
	ldur	x1, [x29, #-32]
	ldrh	w2, [sp, #4]
	mov	w0, #-1
	bl	nand_crc16
	strh	w0, [sp, #6]
	ldrh	w8, [sp, #6]
	and	w8, w8, #0xff00
	asr	w8, w8, #8
	strb	w8, [sp, #44]
	ldrh	w8, [sp, #6]
	and	w8, w8, #0xff
	strb	w8, [sp, #45]
	str	wzr, [sp, #48]
.LBB119_3:                              // =>This Inner Loop Header: Depth=1
	ldur	x8, [x29, #-24]
	ldr	x8, [x8]
	ldrh	w1, [x8]
	ldur	x8, [x29, #-24]
	ldrh	w2, [x8, #56]
	ldur	x8, [x29, #-16]
	ldr	x8, [x8, #8]
	ldrh	w3, [x8, #28]
	ldur	x4, [x29, #-32]
	add	x0, sp, #8                      // =8
	add	x5, sp, #32                     // =32
	bl	set_physic_op_par
	ldur	w8, [x29, #-40]
	mov	w9, #-1431633921
	subs	w8, w8, w9
	b.ne	.LBB119_7
// %bb.4:                               //   in Loop: Header=BB119_3 Depth=1
	ldur	x8, [x29, #-24]
	ldrh	w8, [x8, #56]
	ldur	x9, [x29, #-16]
	ldr	x9, [x9, #8]
	ldrh	w9, [x9, #20]
	subs	w9, w9, #1                      // =1
	subs	w8, w8, w9
	b.eq	.LBB119_6
// %bb.5:                               //   in Loop: Header=BB119_3 Depth=1
.LBB119_6:                              //   in Loop: Header=BB119_3 Depth=1
	ldur	x0, [x29, #-16]
	ldur	x8, [x29, #-24]
	ldr	x8, [x8]
	ldr	w3, [x8, #8]
	ldur	x8, [x29, #-24]
	ldr	x8, [x8]
	ldrh	w4, [x8, #6]
	add	x1, sp, #32                     // =32
	mov	w2, #-1431633921
	bl	set_oob_special_page
	b	.LBB119_18
.LBB119_7:                              //   in Loop: Header=BB119_3 Depth=1
	ldur	w8, [x29, #-40]
	subs	w8, w8, #192                    // =192
	b.ne	.LBB119_11
// %bb.8:                               //   in Loop: Header=BB119_3 Depth=1
	ldur	x8, [x29, #-24]
	ldrh	w8, [x8, #56]
	ldur	x9, [x29, #-16]
	ldr	x9, [x9, #8]
	ldrh	w9, [x9, #20]
	subs	w9, w9, #1                      // =1
	subs	w8, w8, w9
	b.ne	.LBB119_10
// %bb.9:                               //   in Loop: Header=BB119_3 Depth=1
	ldur	x8, [x29, #-24]
	ldr	x8, [x8]
	ldrh	w1, [x8]
	adrp	x0, .L.str.77
	add	x0, x0, :lo12:.L.str.77
	bl	nand_print_dbg
.LBB119_10:                             //   in Loop: Header=BB119_3 Depth=1
	ldur	x0, [x29, #-16]
	ldur	w2, [x29, #-36]
	ldur	x8, [x29, #-24]
	ldr	x8, [x8]
	ldr	w3, [x8, #8]
	ldur	x8, [x29, #-24]
	ldr	x8, [x8]
	ldrh	w4, [x8, #6]
	add	x1, sp, #32                     // =32
	bl	set_oob_logic_page
	b	.LBB119_17
.LBB119_11:                             //   in Loop: Header=BB119_3 Depth=1
	ldur	w8, [x29, #-40]
	mov	w9, #13107
	movk	w9, #43537, lsl #16
	subs	w8, w8, w9
	b.ne	.LBB119_15
// %bb.12:                              //   in Loop: Header=BB119_3 Depth=1
	ldur	x8, [x29, #-24]
	ldrh	w8, [x8, #56]
	ldur	x9, [x29, #-16]
	ldr	x9, [x9, #8]
	ldrh	w9, [x9, #20]
	subs	w9, w9, #1                      // =1
	subs	w8, w8, w9
	b.ne	.LBB119_14
// %bb.13:                              //   in Loop: Header=BB119_3 Depth=1
	ldur	x8, [x29, #-24]
	ldr	x8, [x8]
	ldrh	w1, [x8]
	adrp	x0, .L.str.78
	add	x0, x0, :lo12:.L.str.78
	bl	nand_print_dbg
.LBB119_14:                             //   in Loop: Header=BB119_3 Depth=1
	ldur	x0, [x29, #-16]
	ldur	x8, [x29, #-24]
	ldr	x8, [x8]
	ldr	w3, [x8, #8]
	ldur	x8, [x29, #-24]
	ldr	x8, [x8]
	ldrh	w4, [x8, #6]
	add	x1, sp, #32                     // =32
	mov	w2, #13107
	movk	w2, #43537, lsl #16
	bl	set_oob_special_page
	b	.LBB119_16
.LBB119_15:                             //   in Loop: Header=BB119_3 Depth=1
.LBB119_16:                             //   in Loop: Header=BB119_3 Depth=1
.LBB119_17:                             //   in Loop: Header=BB119_3 Depth=1
.LBB119_18:                             //   in Loop: Header=BB119_3 Depth=1
	ldur	x8, [x29, #-24]
	ldr	x9, [x8]
	mov	w8, #1
	strh	w8, [x9, #2]
	ldur	x8, [x29, #-16]
	ldr	x8, [x8, #3480]
	ldur	x0, [x29, #-16]
	add	x1, sp, #8                      // =8
	blr	x8
	stur	w0, [x29, #-44]
	ldur	w8, [x29, #-44]
	cbz	w8, .LBB119_23
// %bb.19:                              //   in Loop: Header=BB119_3 Depth=1
	ldr	w8, [sp, #48]
	subs	w8, w8, #2                      // =2
	b.ge	.LBB119_23
// %bb.20:                              //   in Loop: Header=BB119_3 Depth=1
	ldrh	w1, [sp, #10]
	adrp	x0, .L.str.79
	add	x0, x0, :lo12:.L.str.79
	bl	nand_print_dbg
	ldur	x0, [x29, #-16]
	ldur	x1, [x29, #-24]
	bl	do_write_error
	cbnz	w0, .LBB119_22
// %bb.21:                              //   in Loop: Header=BB119_3 Depth=1
	ldr	w8, [sp, #48]
	add	w8, w8, #1                      // =1
	str	w8, [sp, #48]
	b	.LBB119_3
.LBB119_22:
	adrp	x0, .L.str.80
	add	x0, x0, :lo12:.L.str.80
	bl	nand_print
	mov	w8, #1
	stur	w8, [x29, #-4]
	b	.LBB119_24
.LBB119_23:
	stur	wzr, [x29, #-4]
.LBB119_24:
	ldur	w0, [x29, #-4]
	ldp	x29, x30, [sp, #96]             // 16-byte Folded Reload
	add	sp, sp, #112                    // =112
	ret
.Lfunc_end119:
	.size	write_phy_data_to_current_block, .Lfunc_end119-write_phy_data_to_current_block
	.cfi_endproc
                                        // -- End function
	.globl	nftl_ops_init                   // -- Begin function nftl_ops_init
	.p2align	2
	.type	nftl_ops_init,@function
nftl_ops_init:                          // @nftl_ops_init
	.cfi_startproc
// %bb.0:
	sub	sp, sp, #16                     // =16
	.cfi_def_cfa_offset 16
	str	x0, [sp, #8]
	ldr	x9, [sp, #8]
	adrp	x8, _nftl_nand_erase_superblk
	add	x8, x8, :lo12:_nftl_nand_erase_superblk
	str	x8, [x9, #3464]
	ldr	x9, [sp, #8]
	adrp	x8, _nftl_nand_read_page
	add	x8, x8, :lo12:_nftl_nand_read_page
	str	x8, [x9, #3472]
	ldr	x9, [sp, #8]
	adrp	x8, _nftl_nand_write_page
	add	x8, x8, :lo12:_nftl_nand_write_page
	str	x8, [x9, #3480]
	ldr	x9, [sp, #8]
	adrp	x8, _nftl_nand_is_blk_good
	add	x8, x8, :lo12:_nftl_nand_is_blk_good
	str	x8, [x9, #3496]
	ldr	x9, [sp, #8]
	adrp	x8, _nftl_nand_mark_bad_blk
	add	x8, x8, :lo12:_nftl_nand_mark_bad_blk
	str	x8, [x9, #3504]
	ldr	x9, [sp, #8]
	adrp	x8, _nftl_nand_copy_page
	add	x8, x8, :lo12:_nftl_nand_copy_page
	str	x8, [x9, #3488]
	ldr	x9, [sp, #8]
	adrp	x8, _nftl_nand_read_logic_page
	add	x8, x8, :lo12:_nftl_nand_read_logic_page
	str	x8, [x9, #3520]
	ldr	x9, [sp, #8]
	adrp	x8, _nftl_nand_write_logic_page
	add	x8, x8, :lo12:_nftl_nand_write_logic_page
	str	x8, [x9, #3512]
	ldr	x9, [sp, #8]
	adrp	x8, _nftl_discard_logic_page
	add	x8, x8, :lo12:_nftl_discard_logic_page
	str	x8, [x9, #3528]
	add	sp, sp, #16                     // =16
	ret
.Lfunc_end120:
	.size	nftl_ops_init, .Lfunc_end120-nftl_ops_init
	.cfi_endproc
                                        // -- End function
	.globl	_nftl_nand_erase_superblk       // -- Begin function _nftl_nand_erase_superblk
	.p2align	2
	.type	_nftl_nand_erase_superblk,@function
_nftl_nand_erase_superblk:              // @_nftl_nand_erase_superblk
	.cfi_startproc
// %bb.0:
	sub	sp, sp, #80                     // =80
	stp	x29, x30, [sp, #64]             // 16-byte Folded Spill
	add	x29, sp, #64                    // =64
	.cfi_def_cfa w29, 16
	.cfi_offset w30, -8
	.cfi_offset w29, -16
	stur	x0, [x29, #-8]
	stur	x1, [x29, #-16]
	ldur	x0, [x29, #-8]
	bl	nftl_get_zone_priv
	str	x0, [sp, #16]
	ldr	x8, [sp, #16]
	ldr	x8, [x8, #8]
	str	x8, [sp, #8]
	ldur	x8, [x29, #-16]
	ldrh	w8, [x8, #2]
	add	x1, sp, #24                     // =24
	strh	w8, [sp, #26]
	ldur	x8, [x29, #-16]
	ldrh	w8, [x8]
	strh	w8, [sp, #24]
	ldur	x8, [x29, #-16]
	ldrh	w8, [x8, #4]
	strh	w8, [sp, #28]
	ldur	x8, [x29, #-16]
	ldr	x8, [x8, #8]
	str	x8, [sp, #32]
	ldur	x8, [x29, #-16]
	ldr	x8, [x8, #16]
	str	x8, [sp, #40]
	ldr	x8, [sp, #8]
	ldr	x8, [x8, #88]
	ldr	x9, [sp, #16]
	ldr	x0, [x9, #8]
	blr	x8
	ldp	x29, x30, [sp, #64]             // 16-byte Folded Reload
	add	sp, sp, #80                     // =80
	ret
.Lfunc_end121:
	.size	_nftl_nand_erase_superblk, .Lfunc_end121-_nftl_nand_erase_superblk
	.cfi_endproc
                                        // -- End function
	.globl	_nftl_nand_read_page            // -- Begin function _nftl_nand_read_page
	.p2align	2
	.type	_nftl_nand_read_page,@function
_nftl_nand_read_page:                   // @_nftl_nand_read_page
	.cfi_startproc
// %bb.0:
	sub	sp, sp, #80                     // =80
	stp	x29, x30, [sp, #64]             // 16-byte Folded Spill
	add	x29, sp, #64                    // =64
	.cfi_def_cfa w29, 16
	.cfi_offset w30, -8
	.cfi_offset w29, -16
	stur	x0, [x29, #-8]
	stur	x1, [x29, #-16]
	ldur	x0, [x29, #-8]
	bl	nftl_get_zone_priv
	str	x0, [sp, #8]
	ldr	x8, [sp, #8]
	ldr	x8, [x8, #8]
	str	x8, [sp]
	ldur	x8, [x29, #-8]
	ldr	x9, [x8, #3440]
	ldr	x8, [x9, #80]
	add	x8, x8, #1                      // =1
	str	x8, [x9, #80]
	ldur	x8, [x29, #-16]
	ldrh	w8, [x8, #2]
	add	x1, sp, #16                     // =16
	strh	w8, [sp, #18]
	ldur	x8, [x29, #-16]
	ldrh	w8, [x8]
	strh	w8, [sp, #16]
	ldur	x8, [x29, #-16]
	ldrh	w8, [x8, #4]
	strh	w8, [sp, #20]
	ldur	x8, [x29, #-16]
	ldr	x8, [x8, #8]
	str	x8, [sp, #24]
	ldur	x8, [x29, #-16]
	ldr	x8, [x8, #16]
	str	x8, [sp, #32]
	ldr	x8, [sp]
	ldr	x8, [x8, #96]
	ldr	x9, [sp, #8]
	ldr	x0, [x9, #8]
	blr	x8
	stur	w0, [x29, #-20]
	ldur	w8, [x29, #-20]
	adds	w8, w8, #2                      // =2
	b.ne	.LBB122_2
// %bb.1:
	ldur	x8, [x29, #-8]
	ldr	x9, [x8, #3440]
	ldr	w8, [x9, #132]
	add	w8, w8, #1                      // =1
	str	w8, [x9, #132]
.LBB122_2:
	ldur	w0, [x29, #-20]
	ldp	x29, x30, [sp, #64]             // 16-byte Folded Reload
	add	sp, sp, #80                     // =80
	ret
.Lfunc_end122:
	.size	_nftl_nand_read_page, .Lfunc_end122-_nftl_nand_read_page
	.cfi_endproc
                                        // -- End function
	.globl	_nftl_nand_write_page           // -- Begin function _nftl_nand_write_page
	.p2align	2
	.type	_nftl_nand_write_page,@function
_nftl_nand_write_page:                  // @_nftl_nand_write_page
	.cfi_startproc
// %bb.0:
	sub	sp, sp, #80                     // =80
	stp	x29, x30, [sp, #64]             // 16-byte Folded Spill
	add	x29, sp, #64                    // =64
	.cfi_def_cfa w29, 16
	.cfi_offset w30, -8
	.cfi_offset w29, -16
	stur	x0, [x29, #-8]
	stur	x1, [x29, #-16]
	ldur	x0, [x29, #-8]
	bl	nftl_get_zone_priv
	str	x0, [sp, #8]
	ldr	x8, [sp, #8]
	ldr	x8, [x8, #8]
	str	x8, [sp]
	ldur	x8, [x29, #-8]
	ldr	x9, [x8, #3440]
	ldr	x8, [x9, #88]
	add	x8, x8, #1                      // =1
	str	x8, [x9, #88]
	ldur	x8, [x29, #-16]
	ldrh	w8, [x8, #2]
	add	x1, sp, #16                     // =16
	strh	w8, [sp, #18]
	ldur	x8, [x29, #-16]
	ldrh	w8, [x8]
	strh	w8, [sp, #16]
	ldur	x8, [x29, #-16]
	ldrh	w8, [x8, #4]
	strh	w8, [sp, #20]
	ldur	x8, [x29, #-16]
	ldr	x8, [x8, #8]
	str	x8, [sp, #24]
	ldur	x8, [x29, #-16]
	ldr	x8, [x8, #16]
	str	x8, [sp, #32]
	ldr	x8, [sp]
	ldr	x8, [x8, #104]
	ldr	x9, [sp, #8]
	ldr	x0, [x9, #8]
	blr	x8
	stur	w0, [x29, #-20]
	ldur	w8, [x29, #-20]
	cbz	w8, .LBB123_2
// %bb.1:
	ldur	x8, [x29, #-8]
	ldr	x9, [x8, #3440]
	ldr	w8, [x9, #136]
	add	w8, w8, #1                      // =1
	str	w8, [x9, #136]
.LBB123_2:
	ldur	w0, [x29, #-20]
	ldp	x29, x30, [sp, #64]             // 16-byte Folded Reload
	add	sp, sp, #80                     // =80
	ret
.Lfunc_end123:
	.size	_nftl_nand_write_page, .Lfunc_end123-_nftl_nand_write_page
	.cfi_endproc
                                        // -- End function
	.globl	_nftl_nand_is_blk_good          // -- Begin function _nftl_nand_is_blk_good
	.p2align	2
	.type	_nftl_nand_is_blk_good,@function
_nftl_nand_is_blk_good:                 // @_nftl_nand_is_blk_good
	.cfi_startproc
// %bb.0:
	sub	sp, sp, #80                     // =80
	stp	x29, x30, [sp, #64]             // 16-byte Folded Spill
	add	x29, sp, #64                    // =64
	.cfi_def_cfa w29, 16
	.cfi_offset w30, -8
	.cfi_offset w29, -16
	stur	x0, [x29, #-8]
	stur	x1, [x29, #-16]
	ldur	x0, [x29, #-8]
	bl	nftl_get_zone_priv
	str	x0, [sp, #16]
	ldr	x8, [sp, #16]
	ldr	x8, [x8, #8]
	str	x8, [sp, #8]
	ldur	x8, [x29, #-16]
	ldrh	w8, [x8, #2]
	add	x1, sp, #24                     // =24
	strh	w8, [sp, #26]
	ldur	x8, [x29, #-16]
	ldrh	w8, [x8]
	strh	w8, [sp, #24]
	ldur	x8, [x29, #-16]
	ldrh	w8, [x8, #4]
	strh	w8, [sp, #28]
	ldur	x8, [x29, #-16]
	ldr	x8, [x8, #8]
	str	x8, [sp, #32]
	ldur	x8, [x29, #-16]
	ldr	x8, [x8, #16]
	str	x8, [sp, #40]
	ldr	x8, [sp, #8]
	ldr	x8, [x8, #112]
	ldr	x9, [sp, #16]
	ldr	x0, [x9, #8]
	blr	x8
	ldp	x29, x30, [sp, #64]             // 16-byte Folded Reload
	add	sp, sp, #80                     // =80
	ret
.Lfunc_end124:
	.size	_nftl_nand_is_blk_good, .Lfunc_end124-_nftl_nand_is_blk_good
	.cfi_endproc
                                        // -- End function
	.globl	_nftl_nand_mark_bad_blk         // -- Begin function _nftl_nand_mark_bad_blk
	.p2align	2
	.type	_nftl_nand_mark_bad_blk,@function
_nftl_nand_mark_bad_blk:                // @_nftl_nand_mark_bad_blk
	.cfi_startproc
// %bb.0:
	sub	sp, sp, #80                     // =80
	stp	x29, x30, [sp, #64]             // 16-byte Folded Spill
	add	x29, sp, #64                    // =64
	.cfi_def_cfa w29, 16
	.cfi_offset w30, -8
	.cfi_offset w29, -16
	stur	x0, [x29, #-8]
	stur	x1, [x29, #-16]
	ldur	x0, [x29, #-8]
	bl	nftl_get_zone_priv
	str	x0, [sp, #16]
	ldr	x8, [sp, #16]
	ldr	x8, [x8, #8]
	str	x8, [sp, #8]
	ldur	x8, [x29, #-16]
	ldrh	w8, [x8, #2]
	add	x1, sp, #24                     // =24
	strh	w8, [sp, #26]
	ldur	x8, [x29, #-16]
	ldrh	w8, [x8]
	strh	w8, [sp, #24]
	ldur	x8, [x29, #-16]
	ldrh	w8, [x8, #4]
	strh	w8, [sp, #28]
	ldur	x8, [x29, #-16]
	ldr	x8, [x8, #8]
	str	x8, [sp, #32]
	ldur	x8, [x29, #-16]
	ldr	x8, [x8, #16]
	str	x8, [sp, #40]
	ldr	x8, [sp, #8]
	ldr	x8, [x8, #120]
	ldr	x9, [sp, #16]
	ldr	x0, [x9, #8]
	blr	x8
	ldp	x29, x30, [sp, #64]             // 16-byte Folded Reload
	add	sp, sp, #80                     // =80
	ret
.Lfunc_end125:
	.size	_nftl_nand_mark_bad_blk, .Lfunc_end125-_nftl_nand_mark_bad_blk
	.cfi_endproc
                                        // -- End function
	.globl	fill_no_use_data_to_page        // -- Begin function fill_no_use_data_to_page
	.p2align	2
	.type	fill_no_use_data_to_page,@function
fill_no_use_data_to_page:               // @fill_no_use_data_to_page
	.cfi_startproc
// %bb.0:
	sub	sp, sp, #32                     // =32
	stp	x29, x30, [sp, #16]             // 16-byte Folded Spill
	add	x29, sp, #16                    // =16
	.cfi_def_cfa w29, 16
	.cfi_offset w30, -8
	.cfi_offset w29, -16
	str	x0, [sp]
	ldr	x0, [sp]
	ldr	x8, [sp]
	add	x1, x8, #528                    // =528
	bl	current_block_at_last_page
	cbz	w0, .LBB126_14
// %bb.1:
	ldr	x0, [sp]
	ldr	x8, [sp]
	add	x1, x8, #528                    // =528
	bl	write_phy_page_map_to_current_block
	cbz	w0, .LBB126_3
// %bb.2:
	adrp	x0, .L.str.73
	add	x0, x0, :lo12:.L.str.73
	bl	nand_print
	mov	w8, #1
	stur	w8, [x29, #-4]
	b	.LBB126_23
.LBB126_3:
	ldr	x8, [sp]
	ldrb	w8, [x8, #25]
	tbz	w8, #0, .LBB126_7
// %bb.4:
	ldr	x0, [sp]
	ldr	x8, [sp]
	add	x1, x8, #592                    // =592
	bl	write_phy_page_map_to_current_block
	cbz	w0, .LBB126_6
// %bb.5:
	adrp	x0, .L.str.73
	add	x0, x0, :lo12:.L.str.73
	bl	nand_print
.LBB126_6:
.LBB126_7:
	ldr	x0, [sp]
	ldr	x8, [sp]
	add	x1, x8, #528                    // =528
	bl	get_new_current_block
	cbz	w0, .LBB126_9
// %bb.8:
	adrp	x0, .L.str.74
	add	x0, x0, :lo12:.L.str.74
	bl	nand_print
	mov	w8, #1
	stur	w8, [x29, #-4]
	b	.LBB126_23
.LBB126_9:
	ldr	x8, [sp]
	ldrb	w8, [x8, #25]
	tbz	w8, #0, .LBB126_13
// %bb.10:
	ldr	x0, [sp]
	ldr	x8, [sp]
	add	x1, x8, #592                    // =592
	bl	get_new_current_block
	cbz	w0, .LBB126_12
// %bb.11:
	adrp	x0, .L.str.75
	add	x0, x0, :lo12:.L.str.75
	bl	nand_print
	mov	w8, #1
	stur	w8, [x29, #-4]
	b	.LBB126_23
.LBB126_12:
.LBB126_13:
	stur	wzr, [x29, #-4]
	b	.LBB126_23
.LBB126_14:
	ldr	x0, [sp]
	ldr	x8, [sp]
	add	x1, x8, #528                    // =528
	bl	current_block_at_first_page
	cbz	w0, .LBB126_16
// %bb.15:
	stur	wzr, [x29, #-4]
	b	.LBB126_23
.LBB126_16:
	ldr	x0, [sp]
	ldr	x8, [sp]
	add	x1, x8, #528                    // =528
	bl	write_phy_page_map_to_current_block
	cbz	w0, .LBB126_18
// %bb.17:
	adrp	x0, .L.str.73
	add	x0, x0, :lo12:.L.str.73
	bl	nand_print
.LBB126_18:
	ldr	x8, [sp]
	ldrb	w8, [x8, #25]
	tbz	w8, #0, .LBB126_22
// %bb.19:
	ldr	x0, [sp]
	ldr	x8, [sp]
	add	x1, x8, #592                    // =592
	bl	write_phy_page_map_to_current_block
	cbz	w0, .LBB126_21
// %bb.20:
	adrp	x0, .L.str.73
	add	x0, x0, :lo12:.L.str.73
	bl	nand_print
.LBB126_21:
.LBB126_22:
	mov	w8, #8
	stur	w8, [x29, #-4]
.LBB126_23:
	ldur	w0, [x29, #-4]
	ldp	x29, x30, [sp, #16]             // 16-byte Folded Reload
	add	sp, sp, #32                     // =32
	ret
.Lfunc_end126:
	.size	fill_no_use_data_to_page, .Lfunc_end126-fill_no_use_data_to_page
	.cfi_endproc
                                        // -- End function
	.globl	fill_no_use_page_to_current_block // -- Begin function fill_no_use_page_to_current_block
	.p2align	2
	.type	fill_no_use_page_to_current_block,@function
fill_no_use_page_to_current_block:      // @fill_no_use_page_to_current_block
	.cfi_startproc
// %bb.0:
	sub	sp, sp, #48                     // =48
	stp	x29, x30, [sp, #32]             // 16-byte Folded Spill
	add	x29, sp, #32                    // =32
	.cfi_def_cfa w29, 16
	.cfi_offset w30, -8
	.cfi_offset w29, -16
	str	x0, [sp, #16]
	str	w1, [sp, #12]
	str	wzr, [sp, #8]
.LBB127_1:                              // =>This Inner Loop Header: Depth=1
	ldr	w8, [sp, #8]
	ldr	w9, [sp, #12]
	subs	w8, w8, w9
	b.ge	.LBB127_6
// %bb.2:                               //   in Loop: Header=BB127_1 Depth=1
	ldr	x0, [sp, #16]
	bl	fill_no_use_data_to_page
	str	w0, [sp, #4]
	ldr	w8, [sp, #4]
	cbnz	w8, .LBB127_4
// %bb.3:
	stur	wzr, [x29, #-4]
	b	.LBB127_7
.LBB127_4:                              //   in Loop: Header=BB127_1 Depth=1
// %bb.5:                               //   in Loop: Header=BB127_1 Depth=1
	ldr	w8, [sp, #8]
	add	w8, w8, #1                      // =1
	str	w8, [sp, #8]
	b	.LBB127_1
.LBB127_6:
	mov	w8, #1
	stur	w8, [x29, #-4]
.LBB127_7:
	ldur	w0, [x29, #-4]
	ldp	x29, x30, [sp, #32]             // 16-byte Folded Reload
	add	sp, sp, #48                     // =48
	ret
.Lfunc_end127:
	.size	fill_no_use_page_to_current_block, .Lfunc_end127-fill_no_use_page_to_current_block
	.cfi_endproc
                                        // -- End function
	.globl	nand_before_shutdown            // -- Begin function nand_before_shutdown
	.p2align	2
	.type	nand_before_shutdown,@function
nand_before_shutdown:                   // @nand_before_shutdown
	.cfi_startproc
// %bb.0:
	sub	sp, sp, #32                     // =32
	stp	x29, x30, [sp, #16]             // 16-byte Folded Spill
	add	x29, sp, #16                    // =16
	.cfi_def_cfa w29, 16
	.cfi_offset w30, -8
	.cfi_offset w29, -16
	str	x0, [sp, #8]
	ldr	x0, [sp, #8]
	mov	w1, #8
	bl	fill_no_use_page_to_current_block
	ldp	x29, x30, [sp, #16]             // 16-byte Folded Reload
	add	sp, sp, #32                     // =32
	ret
.Lfunc_end128:
	.size	nand_before_shutdown, .Lfunc_end128-nand_before_shutdown
	.cfi_endproc
                                        // -- End function
	.globl	dump_buf                        // -- Begin function dump_buf
	.p2align	2
	.type	dump_buf,@function
dump_buf:                               // @dump_buf
	.cfi_startproc
// %bb.0:
	sub	sp, sp, #32                     // =32
	stp	x29, x30, [sp, #16]             // 16-byte Folded Spill
	add	x29, sp, #16                    // =16
	.cfi_def_cfa w29, 16
	.cfi_offset w30, -8
	.cfi_offset w29, -16
	str	x0, [sp, #8]
	str	w1, [sp, #4]
	str	wzr, [sp]
	adrp	x0, .L.str.91
	add	x0, x0, :lo12:.L.str.91
	bl	nand_print
	str	wzr, [sp]
.LBB129_1:                              // =>This Inner Loop Header: Depth=1
	ldr	w8, [sp]
	ldr	w9, [sp, #4]
	subs	w8, w8, w9
	b.hs	.LBB129_8
// %bb.2:                               //   in Loop: Header=BB129_1 Depth=1
	ldr	w8, [sp]
	mov	w10, #16
	sdiv	w9, w8, w10
	mul	w9, w9, w10
	subs	w8, w8, w9
	cbnz	w8, .LBB129_4
// %bb.3:                               //   in Loop: Header=BB129_1 Depth=1
	ldr	w1, [sp]
	adrp	x0, .L.str.92
	add	x0, x0, :lo12:.L.str.92
	bl	nand_print
.LBB129_4:                              //   in Loop: Header=BB129_1 Depth=1
	ldr	x8, [sp, #8]
	ldrsw	x9, [sp]
	ldrb	w1, [x8, x9]
	adrp	x0, .L.str.93
	add	x0, x0, :lo12:.L.str.93
	bl	nand_print
	ldr	w8, [sp]
	add	w8, w8, #1                      // =1
	mov	w10, #16
	sdiv	w9, w8, w10
	mul	w9, w9, w10
	subs	w8, w8, w9
	cbnz	w8, .LBB129_6
// %bb.5:                               //   in Loop: Header=BB129_1 Depth=1
	adrp	x0, .L.str.91
	add	x0, x0, :lo12:.L.str.91
	bl	nand_print
.LBB129_6:                              //   in Loop: Header=BB129_1 Depth=1
// %bb.7:                               //   in Loop: Header=BB129_1 Depth=1
	ldr	w8, [sp]
	add	w8, w8, #1                      // =1
	str	w8, [sp]
	b	.LBB129_1
.LBB129_8:
	adrp	x0, .L.str.91
	add	x0, x0, :lo12:.L.str.91
	bl	nand_print
	ldp	x29, x30, [sp, #16]             // 16-byte Folded Reload
	add	sp, sp, #32                     // =32
	ret
.Lfunc_end129:
	.size	dump_buf, .Lfunc_end129-dump_buf
	.cfi_endproc
                                        // -- End function
	.globl	zone_param_init                 // -- Begin function zone_param_init
	.p2align	2
	.type	zone_param_init,@function
zone_param_init:                        // @zone_param_init
	.cfi_startproc
// %bb.0:
	sub	sp, sp, #64                     // =64
	stp	x29, x30, [sp, #48]             // 16-byte Folded Spill
	add	x29, sp, #48                    // =48
	.cfi_def_cfa w29, 16
	.cfi_offset w30, -8
	.cfi_offset w29, -16
	stur	x0, [x29, #-16]
	sturh	w1, [x29, #-18]
	str	w2, [sp, #24]
	str	w3, [sp, #20]
	ldur	x8, [x29, #-16]
	ldr	x8, [x8, #8]
	ldrh	w0, [x8, #26]
	bl	nftl_malloc
	ldur	x8, [x29, #-16]
	str	x0, [x8, #512]
	ldur	x8, [x29, #-16]
	ldr	x8, [x8, #512]
	cbnz	x8, .LBB130_2
// %bb.1:
	adrp	x0, .L.str.94
	add	x0, x0, :lo12:.L.str.94
	adrp	x1, .L__func__.zone_param_init
	add	x1, x1, :lo12:.L__func__.zone_param_init
	bl	nand_print
	mov	w8, #-2
	stur	w8, [x29, #-4]
	b	.LBB130_20
.LBB130_2:
	ldur	x8, [x29, #-16]
	ldr	x8, [x8, #8]
	ldrh	w0, [x8, #26]
	bl	nftl_malloc
	ldur	x8, [x29, #-16]
	str	x0, [x8, #520]
	ldur	x8, [x29, #-16]
	ldr	x8, [x8, #520]
	cbnz	x8, .LBB130_4
// %bb.3:
	adrp	x0, .L.str.95
	add	x0, x0, :lo12:.L.str.95
	adrp	x1, .L__func__.zone_param_init
	add	x1, x1, :lo12:.L__func__.zone_param_init
	bl	nand_print
	mov	w8, #-2
	stur	w8, [x29, #-4]
	b	.LBB130_20
.LBB130_4:
	ldr	w8, [sp, #24]
	ldur	x9, [x29, #-16]
	str	w8, [x9, #32]
	ldr	w8, [sp, #20]
	ldur	x9, [x29, #-16]
	str	w8, [x9, #40]
	ldurh	w8, [x29, #-18]
	ldur	x9, [x29, #-16]
	strh	w8, [x9, #44]
	ldur	x0, [x29, #-16]
	ldurh	w1, [x29, #-18]
	bl	get_phy_block_addr
	ldur	x8, [x29, #-16]
	str	x0, [x8, #48]
	ldur	x8, [x29, #-16]
	strh	wzr, [x8, #26]
	ldur	x8, [x29, #-16]
	strh	wzr, [x8, #28]
	ldur	x8, [x29, #-16]
	strh	wzr, [x8, #30]
	ldur	x8, [x29, #-16]
	str	xzr, [x8, #56]
	ldur	x8, [x29, #-16]
	ldr	w8, [x8, #32]
	ldur	x9, [x29, #-16]
	ldr	x9, [x9, #8]
	ldrb	w9, [x9, #8]
	udiv	w8, w8, w9
	str	w8, [sp, #12]
	ldur	x0, [x29, #-16]
	ldr	w1, [sp, #12]
	bl	malloc_logic_page_map
	cbz	w0, .LBB130_6
// %bb.5:
	adrp	x0, .L.str.96
	add	x0, x0, :lo12:.L.str.96
	bl	nand_print
	mov	w8, #-2
	stur	w8, [x29, #-4]
	b	.LBB130_20
.LBB130_6:
	ldur	x8, [x29, #-16]
	ldr	x8, [x8, #8]
	ldrh	w8, [x8, #20]
	lsl	w8, w8, #2
	ldur	x9, [x29, #-16]
	str	w8, [x9, #560]
	ldur	x9, [x29, #-16]
	mov	w8, #320
	str	w8, [x9, #576]
	ldur	x8, [x29, #-16]
	ldr	w8, [x8, #560]
	ldur	x9, [x29, #-16]
	ldr	w9, [x9, #576]
	add	w8, w8, w9
	ldur	x9, [x29, #-16]
	str	w8, [x9, #544]
	ldur	x8, [x29, #-16]
	ldr	w8, [x8, #544]
	ldur	x9, [x29, #-16]
	ldr	x9, [x9, #8]
	ldrb	w9, [x9, #8]
	subs	w8, w8, w9, lsl #9
	b.hs	.LBB130_8
// %bb.7:
	ldur	x8, [x29, #-16]
	ldr	x8, [x8, #8]
	ldrb	w8, [x8, #8]
	lsl	w8, w8, #9
	ldur	x9, [x29, #-16]
	str	w8, [x9, #544]
	b	.LBB130_9
.LBB130_8:
	ldur	x8, [x29, #-16]
	ldr	w2, [x8, #544]
	ldur	x8, [x29, #-16]
	ldr	x8, [x8, #8]
	ldrh	w8, [x8, #28]
	lsl	w3, w8, #9
	adrp	x0, .L.str.97
	add	x0, x0, :lo12:.L.str.97
	adrp	x1, .L__func__.zone_param_init
	add	x1, x1, :lo12:.L__func__.zone_param_init
	bl	nand_print
	mov	w8, #-2
	stur	w8, [x29, #-4]
	b	.LBB130_20
.LBB130_9:
	ldur	x8, [x29, #-16]
	ldr	w0, [x8, #544]
	bl	nftl_malloc
	ldur	x8, [x29, #-16]
	str	x0, [x8, #536]
	ldur	x8, [x29, #-16]
	ldr	x8, [x8, #536]
	cbnz	x8, .LBB130_11
// %bb.10:
	adrp	x0, .L.str.98
	add	x0, x0, :lo12:.L.str.98
	adrp	x1, .L__func__.zone_param_init
	add	x1, x1, :lo12:.L__func__.zone_param_init
	bl	nand_print
	mov	w8, #-2
	stur	w8, [x29, #-4]
	b	.LBB130_20
.LBB130_11:
	ldur	x8, [x29, #-16]
	ldr	x8, [x8, #536]
	ldur	x9, [x29, #-16]
	str	x8, [x9, #552]
	ldur	x8, [x29, #-16]
	ldr	x8, [x8, #536]
	ldur	x9, [x29, #-16]
	ldr	w9, [x9, #560]
                                        // kill: def $x9 killed $w9
	add	x8, x8, x9
	ldur	x9, [x29, #-16]
	str	x8, [x9, #568]
	ldur	x8, [x29, #-16]
	ldr	x8, [x8, #568]
	ldur	x9, [x29, #-16]
	str	x8, [x9, #3440]
	ldur	x8, [x29, #-16]
	ldr	x0, [x8, #536]
	ldur	x8, [x29, #-16]
	ldr	w2, [x8, #544]
	mov	w1, #-1
	bl	nand_memset
	ldur	x8, [x29, #-16]
	ldr	w8, [x8, #560]
	ldur	x9, [x29, #-16]
	str	w8, [x9, #624]
	ldur	x8, [x29, #-16]
	ldr	w8, [x8, #576]
	ldur	x9, [x29, #-16]
	str	w8, [x9, #576]
	ldur	x8, [x29, #-16]
	ldr	w8, [x8, #544]
	ldur	x9, [x29, #-16]
	str	w8, [x9, #608]
	ldur	x8, [x29, #-16]
	ldr	w0, [x8, #608]
	bl	nftl_malloc
	ldur	x8, [x29, #-16]
	str	x0, [x8, #600]
	ldur	x8, [x29, #-16]
	ldr	x8, [x8, #600]
	cbnz	x8, .LBB130_13
// %bb.12:
	adrp	x0, .L.str.99
	add	x0, x0, :lo12:.L.str.99
	adrp	x1, .L__func__.zone_param_init
	add	x1, x1, :lo12:.L__func__.zone_param_init
	bl	nand_print
	mov	w8, #-2
	stur	w8, [x29, #-4]
	b	.LBB130_20
.LBB130_13:
	ldur	x8, [x29, #-16]
	ldr	x8, [x8, #600]
	ldur	x9, [x29, #-16]
	str	x8, [x9, #616]
	ldur	x8, [x29, #-16]
	ldr	x8, [x8, #600]
	ldur	x9, [x29, #-16]
	ldr	w9, [x9, #624]
                                        // kill: def $x9 killed $w9
	add	x8, x8, x9
	ldur	x9, [x29, #-16]
	str	x8, [x9, #632]
	ldur	x8, [x29, #-16]
	ldr	x0, [x8, #600]
	ldur	x8, [x29, #-16]
	ldr	w2, [x8, #608]
	mov	w1, #-1
	bl	nand_memset
	ldur	x8, [x29, #-16]
	ldr	w8, [x8, #560]
	ldur	x9, [x29, #-16]
	str	w8, [x9, #488]
	ldur	x8, [x29, #-16]
	ldr	w8, [x8, #576]
	ldur	x9, [x29, #-16]
	str	w8, [x9, #504]
	ldur	x8, [x29, #-16]
	ldr	w8, [x8, #544]
	ldur	x9, [x29, #-16]
	str	w8, [x9, #472]
	ldur	x8, [x29, #-16]
	ldr	w0, [x8, #472]
	bl	nftl_malloc
	ldur	x8, [x29, #-16]
	str	x0, [x8, #464]
	ldur	x8, [x29, #-16]
	ldr	x8, [x8, #464]
	cbnz	x8, .LBB130_15
// %bb.14:
	adrp	x0, .L.str.100
	add	x0, x0, :lo12:.L.str.100
	adrp	x1, .L__func__.zone_param_init
	add	x1, x1, :lo12:.L__func__.zone_param_init
	bl	nand_print
	mov	w8, #-2
	stur	w8, [x29, #-4]
	b	.LBB130_20
.LBB130_15:
	ldur	x8, [x29, #-16]
	ldr	x8, [x8, #464]
	ldur	x9, [x29, #-16]
	str	x8, [x9, #480]
	ldur	x8, [x29, #-16]
	ldr	x8, [x8, #464]
	ldur	x9, [x29, #-16]
	ldr	w9, [x9, #488]
                                        // kill: def $x9 killed $w9
	add	x8, x8, x9
	ldur	x9, [x29, #-16]
	str	x8, [x9, #496]
	ldur	x8, [x29, #-16]
	str	wzr, [x8, #656]
	ldur	x8, [x29, #-16]
	str	wzr, [x8, #676]
	ldur	x8, [x29, #-16]
	str	wzr, [x8, #660]
	ldur	x8, [x29, #-16]
	str	wzr, [x8, #664]
	ldur	x8, [x29, #-16]
	str	wzr, [x8, #668]
	ldur	x8, [x29, #-16]
	str	wzr, [x8, #672]
	ldur	x8, [x29, #-16]
	ldr	x8, [x8, #8]
	ldrh	w8, [x8, #16]
	asr	w8, w8, #1
	ldur	x9, [x29, #-16]
	strh	w8, [x9, #1056]
	ldur	x8, [x29, #-16]
	ldr	x8, [x8, #8]
	ldrh	w8, [x8, #16]
	mov	w9, #6
	sdiv	w8, w8, w9
	ldur	x9, [x29, #-16]
	strh	w8, [x9, #1058]
	ldur	x8, [x29, #-16]
	strh	wzr, [x8, #1060]
	ldur	x8, [x29, #-16]
	strh	wzr, [x8, #1062]
	ldur	x8, [x29, #-16]
	str	xzr, [x8, #1064]
	ldur	x8, [x29, #-16]
	str	xzr, [x8, #528]
	ldur	x9, [x29, #-16]
	mov	w8, #65535
	strh	w8, [x9, #584]
	ldur	x9, [x29, #-16]
	str	xzr, [x9, #592]
	ldur	x9, [x29, #-16]
	strh	w8, [x9, #648]
	ldur	x8, [x29, #-16]
	str	xzr, [x8, #304]
	ldur	x8, [x29, #-16]
	str	xzr, [x8, #312]
	ldur	x8, [x29, #-16]
	str	xzr, [x8, #288]
	ldur	x8, [x29, #-16]
	str	xzr, [x8, #296]
	ldur	x8, [x29, #-16]
	str	xzr, [x8, #320]
	ldur	x8, [x29, #-16]
	str	xzr, [x8, #328]
	ldur	x8, [x29, #-16]
	str	xzr, [x8, #368]
	ldur	x8, [x29, #-16]
	str	xzr, [x8, #376]
	ldur	x8, [x29, #-16]
	str	xzr, [x8, #352]
	ldur	x8, [x29, #-16]
	str	xzr, [x8, #360]
	ldur	x8, [x29, #-16]
	str	xzr, [x8, #384]
	ldur	x8, [x29, #-16]
	str	xzr, [x8, #392]
	ldur	x8, [x29, #-16]
	str	xzr, [x8, #432]
	ldur	x8, [x29, #-16]
	str	xzr, [x8, #440]
	ldur	x8, [x29, #-16]
	str	xzr, [x8, #416]
	ldur	x8, [x29, #-16]
	str	xzr, [x8, #424]
	ldur	x8, [x29, #-16]
	str	xzr, [x8, #448]
	ldur	x8, [x29, #-16]
	str	xzr, [x8, #456]
	ldur	x8, [x29, #-16]
	strh	wzr, [x8, #696]
	str	wzr, [sp, #16]
.LBB130_16:                             // =>This Inner Loop Header: Depth=1
	ldr	w8, [sp, #16]
	subs	w8, w8, #10                     // =10
	b.hs	.LBB130_19
// %bb.17:                              //   in Loop: Header=BB130_16 Depth=1
	ldr	w8, [sp, #16]
	ldur	x9, [x29, #-16]
	add	x9, x9, #704                    // =704
	ldr	w10, [sp, #16]
                                        // kill: def $x10 killed $w10
	add	x9, x9, x10, lsl #5
	strh	w8, [x9]
	ldur	x8, [x29, #-16]
	add	x8, x8, #704                    // =704
	ldr	w9, [sp, #16]
                                        // kill: def $x9 killed $w9
	add	x8, x8, x9, lsl #5
	strh	wzr, [x8, #2]
	ldur	x8, [x29, #-16]
	add	x8, x8, #704                    // =704
	ldr	w9, [sp, #16]
                                        // kill: def $x9 killed $w9
	add	x8, x8, x9, lsl #5
	str	xzr, [x8, #8]
	ldur	x8, [x29, #-16]
	add	x8, x8, #704                    // =704
	ldr	w9, [sp, #16]
                                        // kill: def $x9 killed $w9
	add	x8, x8, x9, lsl #5
	str	xzr, [x8, #16]
	ldur	x8, [x29, #-16]
	add	x8, x8, #704                    // =704
	ldr	w9, [sp, #16]
                                        // kill: def $x9 killed $w9
	add	x8, x8, x9, lsl #5
	str	xzr, [x8, #24]
// %bb.18:                              //   in Loop: Header=BB130_16 Depth=1
	ldr	w8, [sp, #16]
	add	w8, w8, #1                      // =1
	str	w8, [sp, #16]
	b	.LBB130_16
.LBB130_19:
	ldur	x9, [x29, #-16]
	mov	w8, #255
	strh	w8, [x9, #1024]
	ldur	x8, [x29, #-16]
	strh	wzr, [x8, #698]
	ldur	x8, [x29, #-16]
	strh	wzr, [x8, #1026]
	ldur	x8, [x29, #-16]
	str	xzr, [x8, #1032]
	ldur	x8, [x29, #-16]
	str	xzr, [x8, #1040]
	ldur	x8, [x29, #-16]
	str	xzr, [x8, #1048]
	stur	wzr, [x29, #-4]
.LBB130_20:
	ldur	w0, [x29, #-4]
	ldp	x29, x30, [sp, #48]             // 16-byte Folded Reload
	add	sp, sp, #64                     // =64
	ret
.Lfunc_end130:
	.size	zone_param_init, .Lfunc_end130-zone_param_init
	.cfi_endproc
                                        // -- End function
	.globl	zone_param_exit                 // -- Begin function zone_param_exit
	.p2align	2
	.type	zone_param_exit,@function
zone_param_exit:                        // @zone_param_exit
	.cfi_startproc
// %bb.0:
	sub	sp, sp, #32                     // =32
	stp	x29, x30, [sp, #16]             // 16-byte Folded Spill
	add	x29, sp, #16                    // =16
	.cfi_def_cfa w29, 16
	.cfi_offset w30, -8
	.cfi_offset w29, -16
	str	x0, [sp, #8]
	ldr	x0, [sp, #8]
	bl	free_logic_page_map
	ldr	x8, [sp, #8]
	ldr	x0, [x8, #464]
	bl	nftl_free
	ldr	x8, [sp, #8]
	ldr	x0, [x8, #536]
	bl	nftl_free
	ldr	x8, [sp, #8]
	ldr	x0, [x8, #600]
	bl	nftl_free
	ldr	x8, [sp, #8]
	ldr	x0, [x8, #512]
	bl	nftl_free
	ldr	x8, [sp, #8]
	ldr	x0, [x8, #520]
	bl	nftl_free
	mov	w0, wzr
	ldp	x29, x30, [sp, #16]             // 16-byte Folded Reload
	add	sp, sp, #32                     // =32
	ret
.Lfunc_end131:
	.size	zone_param_exit, .Lfunc_end131-zone_param_exit
	.cfi_endproc
                                        // -- End function
	.globl	is_no_use_device                // -- Begin function is_no_use_device
	.p2align	2
	.type	is_no_use_device,@function
is_no_use_device:                       // @is_no_use_device
	.cfi_startproc
// %bb.0:
	sub	sp, sp, #112                    // =112
	stp	x29, x30, [sp, #96]             // 16-byte Folded Spill
	add	x29, sp, #96                    // =96
	.cfi_def_cfa w29, 16
	.cfi_offset w30, -8
	.cfi_offset w29, -16
	stur	x0, [x29, #-16]
	stur	w1, [x29, #-20]
	ldur	x8, [x29, #-16]
	ldr	x8, [x8, #48]
	str	x8, [sp, #16]
	ldur	x8, [x29, #-16]
	ldr	w8, [x8, #32]
	cbz	w8, .LBB132_2
// %bb.1:
	ldur	x8, [x29, #-16]
	ldr	w8, [x8, #32]
	ldur	x9, [x29, #-16]
	ldr	w9, [x9, #40]
	add	w8, w8, w9
	ldur	x9, [x29, #-16]
	ldr	x9, [x9, #8]
	ldrb	w9, [x9, #8]
	udiv	w8, w8, w9
	stur	w8, [x29, #-24]
	ldur	x8, [x29, #-16]
	ldr	x8, [x8, #8]
	ldrh	w9, [x8, #20]
	ldur	w8, [x29, #-24]
	udiv	w8, w8, w9
	stur	w8, [x29, #-24]
	b	.LBB132_3
.LBB132_2:
	mov	w8, #-1
	stur	w8, [x29, #-24]
.LBB132_3:
	ldur	x8, [x29, #-16]
	strh	wzr, [x8, #26]
.LBB132_4:                              // =>This Inner Loop Header: Depth=1
	ldur	x8, [x29, #-16]
	ldrh	w8, [x8, #26]
	ldur	w9, [x29, #-24]
	subs	w8, w8, w9
	b.hs	.LBB132_18
// %bb.5:                               //   in Loop: Header=BB132_4 Depth=1
	ldr	x8, [sp, #16]
	ldur	x9, [x29, #-16]
	str	x8, [x9, #56]
	ldr	x8, [sp, #16]
	ldrh	w1, [x8]
	ldur	x8, [x29, #-16]
	ldr	x8, [x8, #8]
	ldrh	w3, [x8, #28]
	ldur	x8, [x29, #-16]
	ldr	x4, [x8, #512]
	add	x0, sp, #24                     // =24
	str	x0, [sp]                        // 8-byte Folded Spill
	mov	w2, wzr
	sub	x5, x29, #44                    // =44
	bl	set_physic_op_par
	ldr	x1, [sp]                        // 8-byte Folded Reload
	ldur	x8, [x29, #-16]
	ldr	x8, [x8, #3496]
	ldur	x0, [x29, #-16]
	blr	x8
	subs	w8, w0, #1                      // =1
	b.ne	.LBB132_13
// %bb.6:
	ldur	x8, [x29, #-16]
	ldr	x8, [x8, #3472]
	ldur	x0, [x29, #-16]
	add	x1, sp, #24                     // =24
	blr	x8
	str	w0, [sp, #12]
	sub	x0, x29, #44                    // =44
	bl	is_ftl_start_flag_page
	subs	w8, w0, #1                      // =1
	b.ne	.LBB132_12
// %bb.7:
	ldr	w8, [sp, #12]
	cbz	w8, .LBB132_9
// %bb.8:
	ldr	w8, [sp, #12]
	subs	w8, w8, #10                     // =10
	b.ne	.LBB132_12
.LBB132_9:
	sub	x0, x29, #44                    // =44
	mov	w1, #3
	mov	w2, #4
	bl	get_spare_data
	stur	w0, [x29, #-28]
	ldur	w8, [x29, #-28]
	ldur	w9, [x29, #-20]
	subs	w8, w8, w9
	b.eq	.LBB132_11
// %bb.10:
	adrp	x0, .L.str.101
	add	x0, x0, :lo12:.L.str.101
	bl	nand_print
	mov	w8, #1
	stur	w8, [x29, #-4]
	b	.LBB132_19
.LBB132_11:
	ldr	x8, [sp, #16]
